---
triple:          'arm64-apple-darwin'
binary-path:     '/Users/nguyenle/Code/data-structures-and-algorithms/leetcode/top-interview-150/98/Rust/solution'
relocations:
  - { offsetInCU: 0x1E, offset: 0x1E, size: 0x8, addend: 0x0, symName: __ZN3std2rt10lang_start17h1e55f0a494913b83E, symObjAddr: 0x0, symBinAddr: 0x100003F10, symSize: 0x60 }
  - { offsetInCU: 0x68, offset: 0x68, size: 0x8, addend: 0x0, symName: '__ZN3std2rt10lang_start28_$u7b$$u7b$closure$u7d$$u7d$17he0fcfa6d41d95352E', symObjAddr: 0x60, symBinAddr: 0x100003F70, symSize: 0x34 }
  - { offsetInCU: 0xD2, offset: 0xD2, size: 0x8, addend: 0x0, symName: __ZN3std2rt10lang_start17h1e55f0a494913b83E, symObjAddr: 0x0, symBinAddr: 0x100003F10, symSize: 0x60 }
  - { offsetInCU: 0x179, offset: 0x179, size: 0x8, addend: 0x0, symName: __ZN3std3sys9backtrace28__rust_begin_short_backtrace17h4f8eff5af5b3596aE, symObjAddr: 0x94, symBinAddr: 0x100003FA4, symSize: 0x24 }
  - { offsetInCU: 0x224, offset: 0x224, size: 0x8, addend: 0x0, symName: '__ZN54_$LT$$LP$$RP$$u20$as$u20$std..process..Termination$GT$6report17h12759acf969903e9E', symObjAddr: 0x5EC, symBinAddr: 0x1000044F8, symSize: 0x10 }
  - { offsetInCU: 0x509, offset: 0x509, size: 0x8, addend: 0x0, symName: __ZN4core3ptr9alignment9Alignment13new_unchecked18precondition_check17hf89ef6b75c99a87cE, symObjAddr: 0x3C8, symBinAddr: 0x1000042D4, symSize: 0x70 }
  - { offsetInCU: 0x6C1, offset: 0x6C1, size: 0x8, addend: 0x0, symName: '__ZN4core3ptr8non_null16NonNull$LT$T$GT$13new_unchecked18precondition_check17h5f0bd6e2711935a1E', symObjAddr: 0x34C, symBinAddr: 0x100004258, symSize: 0x58 }
  - { offsetInCU: 0x894, offset: 0x894, size: 0x8, addend: 0x0, symName: '__ZN4core3ptr115drop_in_place$LT$core..option..Option$LT$alloc..rc..Rc$LT$core..cell..RefCell$LT$solution..TreeNode$GT$$GT$$GT$$GT$17h74e395f580103f7aE', symObjAddr: 0x1D0, symBinAddr: 0x1000040DC, symSize: 0x44 }
  - { offsetInCU: 0x8C3, offset: 0x8C3, size: 0x8, addend: 0x0, symName: '__ZN4core3ptr116drop_in_place$LT$alloc..rc..Weak$LT$core..cell..RefCell$LT$solution..TreeNode$GT$$C$$RF$alloc..alloc..Global$GT$$GT$17hc32e3c4788a12f22E', symObjAddr: 0x214, symBinAddr: 0x100004120, symSize: 0x24 }
  - { offsetInCU: 0x8F2, offset: 0x8F2, size: 0x8, addend: 0x0, symName: '__ZN4core3ptr39drop_in_place$LT$solution..TreeNode$GT$17h22036e87937ace81E', symObjAddr: 0x238, symBinAddr: 0x100004144, symSize: 0x60 }
  - { offsetInCU: 0x921, offset: 0x921, size: 0x8, addend: 0x0, symName: '__ZN4core3ptr42drop_in_place$LT$core..cell..BorrowRef$GT$17hca3bb0b12f0316d6E', symObjAddr: 0x298, symBinAddr: 0x1000041A4, symSize: 0x24 }
  - { offsetInCU: 0x950, offset: 0x950, size: 0x8, addend: 0x0, symName: '__ZN4core3ptr62drop_in_place$LT$core..cell..Ref$LT$solution..TreeNode$GT$$GT$17hfcc9be6a2a8951e9E', symObjAddr: 0x2BC, symBinAddr: 0x1000041C8, symSize: 0x24 }
  - { offsetInCU: 0x97F, offset: 0x97F, size: 0x8, addend: 0x0, symName: '__ZN4core3ptr66drop_in_place$LT$core..cell..RefCell$LT$solution..TreeNode$GT$$GT$17h89c8023a90d6a0b6E', symObjAddr: 0x2E0, symBinAddr: 0x1000041EC, symSize: 0x24 }
  - { offsetInCU: 0x9AE, offset: 0x9AE, size: 0x8, addend: 0x0, symName: '__ZN4core3ptr69drop_in_place$LT$core..cell..UnsafeCell$LT$solution..TreeNode$GT$$GT$17hf09662a7fb002074E', symObjAddr: 0x304, symBinAddr: 0x100004210, symSize: 0x24 }
  - { offsetInCU: 0x9DD, offset: 0x9DD, size: 0x8, addend: 0x0, symName: '__ZN4core3ptr87drop_in_place$LT$alloc..rc..Rc$LT$core..cell..RefCell$LT$solution..TreeNode$GT$$GT$$GT$17h5209029c359563dcE', symObjAddr: 0x328, symBinAddr: 0x100004234, symSize: 0x24 }
  - { offsetInCU: 0xA0C, offset: 0xA0C, size: 0x8, addend: 0x0, symName: '__ZN4core3ptr92drop_in_place$LT$alloc..rc..RcInner$LT$core..cell..RefCell$LT$solution..TreeNode$GT$$GT$$GT$17h5e88d806530a62f0E', symObjAddr: 0x3A4, symBinAddr: 0x1000042B0, symSize: 0x24 }
  - { offsetInCU: 0xB75, offset: 0xB75, size: 0x8, addend: 0x0, symName: __ZN4core4hint16assert_unchecked18precondition_check17h451d24e907532a50E, symObjAddr: 0x52C, symBinAddr: 0x100004438, symSize: 0x58 }
  - { offsetInCU: 0xBDE, offset: 0xBDE, size: 0x8, addend: 0x0, symName: '__ZN48_$LT$$RF$A$u20$as$u20$core..alloc..Allocator$GT$10deallocate17haf8677e6c6a9c35dE', symObjAddr: 0xB8, symBinAddr: 0x100003FC8, symSize: 0x38 }
  - { offsetInCU: 0xCF7, offset: 0xCF7, size: 0x8, addend: 0x0, symName: __ZN4core5alloc6layout6Layout29from_size_alignment_unchecked18precondition_check17h24d4f7117ade8b78E, symObjAddr: 0x584, symBinAddr: 0x100004490, symSize: 0x68 }
  - { offsetInCU: 0x125B, offset: 0x125B, size: 0x8, addend: 0x0, symName: '__ZN4core3ops8function6FnOnce40call_once$u7b$$u7b$vtable.shim$u7d$$u7d$17h1fe44425ecd29158E', symObjAddr: 0x13C, symBinAddr: 0x100004048, symSize: 0x28 }
  - { offsetInCU: 0x129F, offset: 0x129F, size: 0x8, addend: 0x0, symName: __ZN4core3ops8function6FnOnce9call_once17h195489227c1616c2E, symObjAddr: 0x164, symBinAddr: 0x100004070, symSize: 0x20 }
  - { offsetInCU: 0x12DF, offset: 0x12DF, size: 0x8, addend: 0x0, symName: __ZN4core3ops8function6FnOnce9call_once17h9734f4239fe8ef8cE, symObjAddr: 0x184, symBinAddr: 0x100004090, symSize: 0x4C }
  - { offsetInCU: 0x1718, offset: 0x1718, size: 0x8, addend: 0x0, symName: '__ZN63_$LT$core..cell..BorrowRef$u20$as$u20$core..ops..drop..Drop$GT$4drop17h96d98d4274c5075aE', symObjAddr: 0xA58, symBinAddr: 0x100004964, symSize: 0x28 }
  - { offsetInCU: 0x1788, offset: 0x1788, size: 0x8, addend: 0x0, symName: '__ZN68_$LT$core..cell..Ref$LT$T$GT$$u20$as$u20$core..ops..deref..Deref$GT$5deref17h9e7f977944ec604dE', symObjAddr: 0xB30, symBinAddr: 0x100004A3C, symSize: 0x18 }
  - { offsetInCU: 0x1930, offset: 0x1930, size: 0x8, addend: 0x0, symName: '__ZN68_$LT$core..option..Option$LT$T$GT$$u20$as$u20$core..clone..Clone$GT$5clone17hd007aa3424fa0deaE', symObjAddr: 0xB48, symBinAddr: 0x100004A54, symSize: 0x5C }
  - { offsetInCU: 0x1C32, offset: 0x1C32, size: 0x8, addend: 0x0, symName: __ZN4core3fmt2rt8Argument11new_display17h8664286f4c9dc0dfE, symObjAddr: 0xF4, symBinAddr: 0x100004000, symSize: 0x2C }
  - { offsetInCU: 0x1CAB, offset: 0x1CAB, size: 0x8, addend: 0x0, symName: __ZN4core3fmt9Arguments3new17h51cef2fc18bf0effE, symObjAddr: 0x120, symBinAddr: 0x10000402C, symSize: 0x1C }
  - { offsetInCU: 0x1D24, offset: 0x1D24, size: 0x8, addend: 0x0, symName: __ZN8solution4main17hfb4d1574f8e8e00fE, symObjAddr: 0xCF0, symBinAddr: 0x100004BFC, symSize: 0x2A0 }
  - { offsetInCU: 0x1F1B, offset: 0x1F1B, size: 0x8, addend: 0x0, symName: __ZN5alloc2rc10RcInnerPtr10inc_strong17h5bad4a88a5cc9a43E, symObjAddr: 0x60C, symBinAddr: 0x100004518, symSize: 0x9C }
  - { offsetInCU: 0x203D, offset: 0x203D, size: 0x8, addend: 0x0, symName: __ZN5alloc2rc10RcInnerPtr6strong17h5e2792f88287a0d3E, symObjAddr: 0x6A8, symBinAddr: 0x1000045B4, symSize: 0x28 }
  - { offsetInCU: 0x212C, offset: 0x212C, size: 0x8, addend: 0x0, symName: '__ZN65_$LT$alloc..rc..Rc$LT$T$C$A$GT$$u20$as$u20$core..clone..Clone$GT$5clone17ha19ddb638865dd47E', symObjAddr: 0xA80, symBinAddr: 0x10000498C, symSize: 0x48 }
  - { offsetInCU: 0x21A5, offset: 0x21A5, size: 0x8, addend: 0x0, symName: '__ZN68_$LT$alloc..rc..Rc$LT$T$C$A$GT$$u20$as$u20$core..ops..drop..Drop$GT$4drop17h3ca5190676ebff9bE', symObjAddr: 0xAC8, symBinAddr: 0x1000049D4, symSize: 0x68 }
  - { offsetInCU: 0x240F, offset: 0x240F, size: 0x8, addend: 0x0, symName: '__ZN70_$LT$alloc..rc..Weak$LT$T$C$A$GT$$u20$as$u20$core..ops..drop..Drop$GT$4drop17h8b4505e731448e53E', symObjAddr: 0xBA4, symBinAddr: 0x100004AB0, symSize: 0x14C }
  - { offsetInCU: 0x274F, offset: 0x274F, size: 0x8, addend: 0x0, symName: '__ZN59_$LT$alloc..alloc..Global$u20$as$u20$core..clone..Clone$GT$5clone17h46012fad0b8c5631E', symObjAddr: 0x5FC, symBinAddr: 0x100004508, symSize: 0x10 }
  - { offsetInCU: 0x27E0, offset: 0x27E0, size: 0x8, addend: 0x0, symName: '__ZN63_$LT$alloc..alloc..Global$u20$as$u20$core..alloc..Allocator$GT$10deallocate17h4bcaf50471adbe94E', symObjAddr: 0xA00, symBinAddr: 0x10000490C, symSize: 0x58 }
  - { offsetInCU: 0x296E, offset: 0x296E, size: 0x8, addend: 0x0, symName: __ZN5alloc5boxed14box_new_uninit17hd028217feb27d255E, symObjAddr: 0x97C, symBinAddr: 0x100004888, symSize: 0x84 }
  - { offsetInCU: 0x2A13, offset: 0x2A13, size: 0x8, addend: 0x0, symName: '__ZN4core4cell16RefCell$LT$T$GT$3new17h73a0da22e4172106E', symObjAddr: 0x438, symBinAddr: 0x100004344, symSize: 0x34 }
  - { offsetInCU: 0x2BBE, offset: 0x2BBE, size: 0x8, addend: 0x0, symName: '__ZN4core4cell16RefCell$LT$T$GT$6borrow17hcbd30f4017180a8bE', symObjAddr: 0x46C, symBinAddr: 0x100004378, symSize: 0xC0 }
  - { offsetInCU: 0x2E4E, offset: 0x2E4E, size: 0x8, addend: 0x0, symName: '__ZN5alloc2rc11Rc$LT$T$GT$3new17hef81b3ca267dca7cE', symObjAddr: 0x6D0, symBinAddr: 0x1000045DC, symSize: 0xB4 }
  - { offsetInCU: 0x2F89, offset: 0x2F89, size: 0x8, addend: 0x0, symName: '__ZN5alloc2rc15Rc$LT$T$C$A$GT$9drop_slow17hb5c9fc9aa3cb022dE', symObjAddr: 0x784, symBinAddr: 0x100004690, symSize: 0x74 }
  - { offsetInCU: 0x314B, offset: 0x314B, size: 0x8, addend: 0x0, symName: __ZN5alloc5alloc6Global18alloc_impl_runtime17h000847fdb669dc1fE, symObjAddr: 0x7F8, symBinAddr: 0x100004704, symSize: 0x184 }
  - { offsetInCU: 0x381A, offset: 0x381A, size: 0x8, addend: 0x0, symName: __ZN8solution8Solution12is_valid_bst17h402fc5c29b789209E, symObjAddr: 0xF90, symBinAddr: 0x100004E9C, symSize: 0x34 }
  - { offsetInCU: 0x38B2, offset: 0x38B2, size: 0x8, addend: 0x0, symName: __ZN8solution8Solution8validate17hcdd01ce0c16cae68E, symObjAddr: 0xFC4, symBinAddr: 0x100004ED0, symSize: 0x2B0 }
  - { offsetInCU: 0x396D, offset: 0x396D, size: 0x8, addend: 0x0, symName: __ZN8solution8TreeNode3new17h213d73062c331e51E, symObjAddr: 0x1274, symBinAddr: 0x100005180, symSize: 0x1C }
  - { offsetInCU: 0x1E, offset: 0x3A76, size: 0x8, addend: 0x0, symName: __RINvMNtNtCsg55jX0GwzBC_3std4sync9once_lockINtB3_8OnceLockINtNtB5_14reentrant_lock13ReentrantLockINtNtCsl8K0bEFm1U0_4core4cell7RefCellINtNtNtNtB7_2io8buffered10linewriter10LineWriterNtNtB2e_5stdio9StdoutRawEEEE10initializeNCINvB2_11get_or_initNCNvB2V_6stdout0E0zEB7_, symObjAddr: 0x0, symBinAddr: 0x100035584, symSize: 0x60 }
  - { offsetInCU: 0xFD9, offset: 0x4A31, size: 0x8, addend: 0x0, symName: __RINvMNtNtCsl8K0bEFm1U0_4core4cell4onceINtB3_8OnceCellINtNtB7_6result6ResultINtNtB7_6option6OptionINtNtCs1OjIl8oxbrv_5alloc5boxed3BoxINtNtCs2IzQ63mrjeP_9addr2line4unit7DwoUnitINtNtNtCscUtGwbhD4WH_5gimli4read12endian_slice11EndianSliceNtNtB2T_9endianity12LittleEndianEEEENtB2R_5ErrorEE8try_initNCINvB2_11get_or_initNCNCNvMB29_INtB29_7ResUnitB2M_E14dwarf_and_units4_00E0zECsg55jX0GwzBC_3std, symObjAddr: 0x11C, symBinAddr: 0x100035648, symSize: 0x48 }
  - { offsetInCU: 0xFF7, offset: 0x4A4F, size: 0x8, addend: 0x0, symName: __RINvMNtNtCsl8K0bEFm1U0_4core4cell4onceINtB3_8OnceCellINtNtB7_6result6ResultINtNtB7_6option6OptionINtNtCs1OjIl8oxbrv_5alloc5boxed3BoxINtNtCs2IzQ63mrjeP_9addr2line4unit7DwoUnitINtNtNtCscUtGwbhD4WH_5gimli4read12endian_slice11EndianSliceNtNtB2T_9endianity12LittleEndianEEEENtB2R_5ErrorEE8try_initNCINvB2_11get_or_initNCNCNvMB29_INtB29_7ResUnitB2M_E14dwarf_and_units4_00E0zECsg55jX0GwzBC_3std, symObjAddr: 0x11C, symBinAddr: 0x100035648, symSize: 0x48 }
  - { offsetInCU: 0x100C, offset: 0x4A64, size: 0x8, addend: 0x0, symName: __RINvMNtNtCsl8K0bEFm1U0_4core4cell4onceINtB3_8OnceCellINtNtB7_6result6ResultINtNtB7_6option6OptionINtNtCs1OjIl8oxbrv_5alloc5boxed3BoxINtNtCs2IzQ63mrjeP_9addr2line4unit7DwoUnitINtNtNtCscUtGwbhD4WH_5gimli4read12endian_slice11EndianSliceNtNtB2T_9endianity12LittleEndianEEEENtB2R_5ErrorEE8try_initNCINvB2_11get_or_initNCNCNvMB29_INtB29_7ResUnitB2M_E14dwarf_and_units4_00E0zECsg55jX0GwzBC_3std, symObjAddr: 0x11C, symBinAddr: 0x100035648, symSize: 0x48 }
  - { offsetInCU: 0x1020, offset: 0x4A78, size: 0x8, addend: 0x0, symName: __RINvMNtNtCsl8K0bEFm1U0_4core4cell4onceINtB3_8OnceCellINtNtB7_6result6ResultINtNtB7_6option6OptionINtNtCs1OjIl8oxbrv_5alloc5boxed3BoxINtNtCs2IzQ63mrjeP_9addr2line4unit7DwoUnitINtNtNtCscUtGwbhD4WH_5gimli4read12endian_slice11EndianSliceNtNtB2T_9endianity12LittleEndianEEEENtB2R_5ErrorEE8try_initNCINvB2_11get_or_initNCNCNvMB29_INtB29_7ResUnitB2M_E14dwarf_and_units4_00E0zECsg55jX0GwzBC_3std, symObjAddr: 0x11C, symBinAddr: 0x100035648, symSize: 0x48 }
  - { offsetInCU: 0x105F, offset: 0x4AB7, size: 0x8, addend: 0x0, symName: __RINvMNtNtCsl8K0bEFm1U0_4core4cell4onceINtB3_8OnceCellINtNtB7_6result6ResultINtNtB7_6option6OptionINtNtCs1OjIl8oxbrv_5alloc5boxed3BoxINtNtCs2IzQ63mrjeP_9addr2line4unit7DwoUnitINtNtNtCscUtGwbhD4WH_5gimli4read12endian_slice11EndianSliceNtNtB2T_9endianity12LittleEndianEEEENtB2R_5ErrorEE8try_initNCINvB2_11get_or_initNCNvMB29_INtB29_7ResUnitB2M_E14dwarf_and_units2_0E0zECsg55jX0GwzBC_3std, symObjAddr: 0x164, symBinAddr: 0x100035690, symSize: 0x68 }
  - { offsetInCU: 0x10FA, offset: 0x4B52, size: 0x8, addend: 0x0, symName: __RINvMNtNtCsl8K0bEFm1U0_4core4cell4onceINtB3_8OnceCellINtNtB7_6result6ResultINtNtCs2IzQ63mrjeP_9addr2line8function8FunctionINtNtNtCscUtGwbhD4WH_5gimli4read12endian_slice11EndianSliceNtNtB23_9endianity12LittleEndianEENtB21_5ErrorEE8try_initNCINvB2_11get_or_initNCNvMs_B1e_INtB1e_12LazyFunctionB1W_E6borrow0E0zECsg55jX0GwzBC_3std, symObjAddr: 0x1CC, symBinAddr: 0x1000356F8, symSize: 0x62C }
  - { offsetInCU: 0x1DDB, offset: 0x5833, size: 0x8, addend: 0x0, symName: __RINvMNtNtCsl8K0bEFm1U0_4core4cell4onceINtB3_8OnceCellINtNtB7_6result6ResultINtNtCs2IzQ63mrjeP_9addr2line8function9FunctionsINtNtNtCscUtGwbhD4WH_5gimli4read12endian_slice11EndianSliceNtNtB24_9endianity12LittleEndianEENtB22_5ErrorEE8try_initNCINvB2_11get_or_initNCNvMB1e_INtB1e_13LazyFunctionsB1X_E6borrow0E0zECsg55jX0GwzBC_3std, symObjAddr: 0x7F8, symBinAddr: 0x100035D24, symSize: 0xC08 }
  - { offsetInCU: 0x3889, offset: 0x72E1, size: 0x8, addend: 0x0, symName: __RINvMNtNtCsl8K0bEFm1U0_4core4cell4onceINtB3_8OnceCellINtNtB7_6result6ResultNtNtCs2IzQ63mrjeP_9addr2line4line5LinesNtNtCscUtGwbhD4WH_5gimli4read5ErrorEE8try_initNCINvB2_11get_or_initNCINvMB1d_NtB1d_9LazyLines6borrowINtNtB1Q_12endian_slice11EndianSliceNtNtB1S_9endianity12LittleEndianEE0E0zECsg55jX0GwzBC_3std, symObjAddr: 0x1400, symBinAddr: 0x10003692C, symSize: 0x1868 }
  - { offsetInCU: 0x714E, offset: 0xABA6, size: 0x8, addend: 0x0, symName: __RINvMNtNtCsl8K0bEFm1U0_4core4cell4onceINtB3_8OnceCellNtNtNtCsg55jX0GwzBC_3std6thread6thread6ThreadE8try_initNCINvB2_11get_or_initNvNtBT_7current18current_or_unnamedE0zEBV_, symObjAddr: 0x2C68, symBinAddr: 0x100038194, symSize: 0xFC }
  - { offsetInCU: 0x795E, offset: 0xB3B6, size: 0x8, addend: 0x0, symName: __RNSNvYNCINvMs0_NtNtCsg55jX0GwzBC_3std4sync4onceNtBd_4Once15call_once_forceNCINvMNtBf_9once_lockINtB1g_8OnceLockINtNtBf_14reentrant_lock13ReentrantLockINtNtCsl8K0bEFm1U0_4core4cell7RefCellINtNtNtNtBh_2io8buffered10linewriter10LineWriterNtNtB36_5stdio9StdoutRawEEEE10initializeNCINvB1f_11get_or_initNCNvB3N_6stdout0E0zE0E0INtNtNtB2t_3ops8function6FnOnceTRNtBd_9OnceStateEE9call_once6vtableBh_, symObjAddr: 0x15C50, symBinAddr: 0x100013140, symSize: 0x70 }
  - { offsetInCU: 0x7ADC, offset: 0xB534, size: 0x8, addend: 0x0, symName: __RNSNvYNCINvMs0_NtNtCsg55jX0GwzBC_3std4sync4onceNtBd_4Once15call_once_forceNCINvMNtBf_9once_lockINtB1g_8OnceLockINtNtBf_14reentrant_lock13ReentrantLockINtNtCsl8K0bEFm1U0_4core4cell7RefCellINtNtNtNtBh_2io8buffered10linewriter10LineWriterNtNtB36_5stdio9StdoutRawEEEE10initializeNCINvB1f_11get_or_initNCNvB3N_7cleanup0E0zE0E0INtNtNtB2t_3ops8function6FnOnceTRNtBd_9OnceStateEE9call_once6vtableBh_, symObjAddr: 0x15CC0, symBinAddr: 0x1000131B0, symSize: 0x60 }
  - { offsetInCU: 0x7BBD, offset: 0xB615, size: 0x8, addend: 0x0, symName: __RNSNvYNCINvMs0_NtNtCsg55jX0GwzBC_3std4sync4onceNtBd_4Once9call_onceNCNvNtBh_2rt7cleanup0E0INtNtNtCsl8K0bEFm1U0_4core3ops8function6FnOnceTRNtBd_9OnceStateEE9call_once6vtableBh_, symObjAddr: 0x15DB4, symBinAddr: 0x100013210, symSize: 0x28 }
  - { offsetInCU: 0x7BF7, offset: 0xB64F, size: 0x8, addend: 0x0, symName: __RNSNvYNCNCNvNtNtCsg55jX0GwzBC_3std3sys9backtrace10__print_fmts_00INtNtNtCsl8K0bEFm1U0_4core3ops8function6FnOnceTRNtNtNtBe_12backtrace_rs9symbolize6SymbolEE9call_once6vtableBe_, symObjAddr: 0x15DDC, symBinAddr: 0x100013238, symSize: 0x4 }
  - { offsetInCU: 0x7C14, offset: 0xB66C, size: 0x8, addend: 0x0, symName: __RNSNvYNCNCNvNtNtCsg55jX0GwzBC_3std3sys9backtrace10__print_fmts_00INtNtNtCsl8K0bEFm1U0_4core3ops8function6FnOnceTRNtNtNtBe_12backtrace_rs9symbolize6SymbolEE9call_once6vtableBe_, symObjAddr: 0x15DDC, symBinAddr: 0x100013238, symSize: 0x4 }
  - { offsetInCU: 0x7C31, offset: 0xB689, size: 0x8, addend: 0x0, symName: __RNSNvYNCNvNtNtCsg55jX0GwzBC_3std3sys9backtrace10__print_fmt0INtNtNtCsl8K0bEFm1U0_4core3ops8function6FnOnceTQNtNtB13_3fmt9FormatterNtNtNtBc_12backtrace_rs5types17BytesOrWideStringEE9call_once6vtableBc_, symObjAddr: 0x15E20, symBinAddr: 0x10001323C, symSize: 0xB0 }
  - { offsetInCU: 0x7EB3, offset: 0xB90B, size: 0x8, addend: 0x0, symName: __RNSNvYNCNvNtNtCsg55jX0GwzBC_3std3sys9backtrace10__print_fmts_0INtNtNtCsl8K0bEFm1U0_4core3ops8function6FnOnceTRNtNtNtBc_12backtrace_rs9backtrace5FrameEE9call_once6vtableBc_, symObjAddr: 0x15ED0, symBinAddr: 0x1000132EC, symSize: 0x4 }
  - { offsetInCU: 0x7ED0, offset: 0xB928, size: 0x8, addend: 0x0, symName: __RNSNvYNCNvNtNtCsg55jX0GwzBC_3std3sys9backtrace10__print_fmts_0INtNtNtCsl8K0bEFm1U0_4core3ops8function6FnOnceTRNtNtNtBc_12backtrace_rs9backtrace5FrameEE9call_once6vtableBc_, symObjAddr: 0x15ED0, symBinAddr: 0x1000132EC, symSize: 0x4 }
  - { offsetInCU: 0x7EED, offset: 0xB945, size: 0x8, addend: 0x0, symName: __RNSNvYNCNvNtNtNtCsg55jX0GwzBC_3std3sys11personality3gcc14find_eh_action0INtNtNtCsl8K0bEFm1U0_4core3ops8function6FnOnceuE9call_once6vtableBe_, symObjAddr: 0x15ED4, symBinAddr: 0x1000132F0, symSize: 0xC }
  - { offsetInCU: 0x7F3C, offset: 0xB994, size: 0x8, addend: 0x0, symName: __RNSNvYNCNvNtNtNtCsg55jX0GwzBC_3std3sys11personality3gcc14find_eh_actions_0INtNtNtCsl8K0bEFm1U0_4core3ops8function6FnOnceuE9call_once6vtableBe_, symObjAddr: 0x15EE0, symBinAddr: 0x1000132FC, symSize: 0xC }
  - { offsetInCU: 0x9600, offset: 0xD058, size: 0x8, addend: 0x0, symName: __RINvNtNtNtCsl8K0bEFm1U0_4core5slice4sort6stable14driftsort_mainNtNtCs2IzQ63mrjeP_9addr2line4line12LineSequenceNCINvMNtCs1OjIl8oxbrv_5alloc5sliceSBZ_11sort_by_keyyNCINvMs_B11_NtB11_5Lines5parseINtNtNtCscUtGwbhD4WH_5gimli4read12endian_slice11EndianSliceNtNtB3b_9endianity12LittleEndianEEs_0E0INtNtB1S_3vec3VecBZ_EECsg55jX0GwzBC_3std, symObjAddr: 0xB584, symBinAddr: 0x10000A7EC, symSize: 0x128 }
  - { offsetInCU: 0x988C, offset: 0xD2E4, size: 0x8, addend: 0x0, symName: __RINvNtNtNtCsl8K0bEFm1U0_4core5slice4sort6stable14driftsort_mainNtNtCs2IzQ63mrjeP_9addr2line4unit9UnitRangeNCINvMNtCs1OjIl8oxbrv_5alloc5sliceSBZ_11sort_by_keyyNCNvMs_B11_INtB11_8ResUnitsINtNtNtCscUtGwbhD4WH_5gimli4read12endian_slice11EndianSliceNtNtB34_9endianity12LittleEndianEE5parses2_0E0INtNtB1O_3vec3VecBZ_EECsg55jX0GwzBC_3std, symObjAddr: 0xB6AC, symBinAddr: 0x10000A914, symSize: 0x124 }
  - { offsetInCU: 0x9BF0, offset: 0xD648, size: 0x8, addend: 0x0, symName: __RINvNtNtNtCsl8K0bEFm1U0_4core5slice4sort6stable14driftsort_mainNtNtCs2IzQ63mrjeP_9addr2line8function15FunctionAddressNCINvMNtCs1OjIl8oxbrv_5alloc5sliceSBZ_11sort_by_keyyNCNvMs0_B11_INtB11_9FunctionsINtNtNtCscUtGwbhD4WH_5gimli4read12endian_slice11EndianSliceNtNtB3h_9endianity12LittleEndianEE5parses_0E0INtNtB1Z_3vec3VecBZ_EECsg55jX0GwzBC_3std, symObjAddr: 0xB7D0, symBinAddr: 0x10000AA38, symSize: 0x148 }
  - { offsetInCU: 0x9F29, offset: 0xD981, size: 0x8, addend: 0x0, symName: __RINvNtNtNtCsl8K0bEFm1U0_4core5slice4sort6stable14driftsort_mainNtNtCs2IzQ63mrjeP_9addr2line8function22InlinedFunctionAddressNCINvMNtCs1OjIl8oxbrv_5alloc5sliceSBZ_7sort_byNCNvMs1_B11_INtB11_8FunctionINtNtNtCscUtGwbhD4WH_5gimli4read12endian_slice11EndianSliceNtNtB3h_9endianity12LittleEndianEE5parse0E0INtNtB26_3vec3VecBZ_EECsg55jX0GwzBC_3std, symObjAddr: 0xB918, symBinAddr: 0x10000AB80, symSize: 0x124 }
  - { offsetInCU: 0xA28D, offset: 0xDCE5, size: 0x8, addend: 0x0, symName: __RINvNtNtNtCsl8K0bEFm1U0_4core5slice4sort6stable14driftsort_mainNtNtCsjiK8NK7psZe_6object4read14ObjectMapEntryNCINvMNtCs1OjIl8oxbrv_5alloc5sliceSBZ_11sort_by_keyyNCNvMs7_B11_INtB11_9SymbolMapBZ_E3new0E0INtNtB1R_3vec3VecBZ_EECsg55jX0GwzBC_3std, symObjAddr: 0xBA3C, symBinAddr: 0x10000ACA4, symSize: 0x148 }
  - { offsetInCU: 0xA5C6, offset: 0xE01E, size: 0x8, addend: 0x0, symName: __RINvNtNtNtCsl8K0bEFm1U0_4core5slice4sort6stable14driftsort_mainTNtNtCscUtGwbhD4WH_5gimli6common15DebugInfoOffsetNtB12_18DebugArangesOffsetENCINvMNtCs1OjIl8oxbrv_5alloc5sliceSBZ_11sort_by_keyB10_NCNvMs_NtCs2IzQ63mrjeP_9addr2line4unitINtB3d_8ResUnitsINtNtNtB14_4read12endian_slice11EndianSliceNtNtB14_9endianity12LittleEndianEE5parse0E0INtNtB2l_3vec3VecBZ_EECsg55jX0GwzBC_3std, symObjAddr: 0xBB84, symBinAddr: 0x10000ADEC, symSize: 0x124 }
  - { offsetInCU: 0xAAF8, offset: 0xE550, size: 0x8, addend: 0x0, symName: __RINvNtNtNtNtCsl8K0bEFm1U0_4core5slice4sort6stable5drift4sortNtNtCs2IzQ63mrjeP_9addr2line4line12LineSequenceNCINvMNtCs1OjIl8oxbrv_5alloc5sliceSBW_11sort_by_keyyNCINvMs_BY_NtBY_5Lines5parseINtNtNtCscUtGwbhD4WH_5gimli4read12endian_slice11EndianSliceNtNtB36_9endianity12LittleEndianEEs_0E0ECsg55jX0GwzBC_3std, symObjAddr: 0xD820, symBinAddr: 0x10000CA04, symSize: 0x4EC }
  - { offsetInCU: 0xB133, offset: 0xEB8B, size: 0x8, addend: 0x0, symName: __RINvNtNtNtNtCsl8K0bEFm1U0_4core5slice4sort6stable5drift4sortNtNtCs2IzQ63mrjeP_9addr2line4unit9UnitRangeNCINvMNtCs1OjIl8oxbrv_5alloc5sliceSBW_11sort_by_keyyNCNvMs_BY_INtBY_8ResUnitsINtNtNtCscUtGwbhD4WH_5gimli4read12endian_slice11EndianSliceNtNtB2Z_9endianity12LittleEndianEE5parses2_0E0ECsg55jX0GwzBC_3std, symObjAddr: 0xDD0C, symBinAddr: 0x10000CEF0, symSize: 0x4EC }
  - { offsetInCU: 0xB76E, offset: 0xF1C6, size: 0x8, addend: 0x0, symName: __RINvNtNtNtNtCsl8K0bEFm1U0_4core5slice4sort6stable5drift4sortNtNtCs2IzQ63mrjeP_9addr2line8function15FunctionAddressNCINvMNtCs1OjIl8oxbrv_5alloc5sliceSBW_11sort_by_keyyNCNvMs0_BY_INtBY_9FunctionsINtNtNtCscUtGwbhD4WH_5gimli4read12endian_slice11EndianSliceNtNtB3c_9endianity12LittleEndianEE5parses_0E0ECsg55jX0GwzBC_3std, symObjAddr: 0xE1F8, symBinAddr: 0x10000D3DC, symSize: 0x52C }
  - { offsetInCU: 0xBD95, offset: 0xF7ED, size: 0x8, addend: 0x0, symName: __RINvNtNtNtNtCsl8K0bEFm1U0_4core5slice4sort6stable5drift4sortNtNtCs2IzQ63mrjeP_9addr2line8function22InlinedFunctionAddressNCINvMNtCs1OjIl8oxbrv_5alloc5sliceSBW_7sort_byNCNvMs1_BY_INtBY_8FunctionINtNtNtCscUtGwbhD4WH_5gimli4read12endian_slice11EndianSliceNtNtB3c_9endianity12LittleEndianEE5parse0E0ECsg55jX0GwzBC_3std, symObjAddr: 0xE724, symBinAddr: 0x10000D908, symSize: 0x5E0 }
  - { offsetInCU: 0xC410, offset: 0xFE68, size: 0x8, addend: 0x0, symName: __RINvNtNtNtNtCsl8K0bEFm1U0_4core5slice4sort6stable5drift4sortNtNtCsjiK8NK7psZe_6object4read14ObjectMapEntryNCINvMNtCs1OjIl8oxbrv_5alloc5sliceSBW_11sort_by_keyyNCNvMs7_BY_INtBY_9SymbolMapBW_E3new0E0ECsg55jX0GwzBC_3std, symObjAddr: 0xED04, symBinAddr: 0x10000DEE8, symSize: 0x534 }
  - { offsetInCU: 0xCA5F, offset: 0x104B7, size: 0x8, addend: 0x0, symName: __RINvNtNtNtNtCsl8K0bEFm1U0_4core5slice4sort6stable5drift4sortTNtNtCscUtGwbhD4WH_5gimli6common15DebugInfoOffsetNtBZ_18DebugArangesOffsetENCINvMNtCs1OjIl8oxbrv_5alloc5sliceSBW_11sort_by_keyBX_NCNvMs_NtCs2IzQ63mrjeP_9addr2line4unitINtB38_8ResUnitsINtNtNtB11_4read12endian_slice11EndianSliceNtNtB11_9endianity12LittleEndianEE5parse0E0ECsg55jX0GwzBC_3std, symObjAddr: 0xF238, symBinAddr: 0x10000E41C, symSize: 0x574 }
  - { offsetInCU: 0xD1E1, offset: 0x10C39, size: 0x8, addend: 0x0, symName: __RINvNtNtNtNtCsl8K0bEFm1U0_4core5slice4sort6stable9quicksort9quicksortNtNtCs2IzQ63mrjeP_9addr2line4line12LineSequenceNCINvMNtCs1OjIl8oxbrv_5alloc5sliceSB15_11sort_by_keyyNCINvMs_B17_NtB17_5Lines5parseINtNtNtCscUtGwbhD4WH_5gimli4read12endian_slice11EndianSliceNtNtB3i_9endianity12LittleEndianEEs_0E0ECsg55jX0GwzBC_3std, symObjAddr: 0xF7AC, symBinAddr: 0x10000E990, symSize: 0x6AC }
  - { offsetInCU: 0xDC65, offset: 0x116BD, size: 0x8, addend: 0x0, symName: __RINvNtNtNtNtCsl8K0bEFm1U0_4core5slice4sort6stable9quicksort9quicksortNtNtCs2IzQ63mrjeP_9addr2line4unit9UnitRangeNCINvMNtCs1OjIl8oxbrv_5alloc5sliceSB15_11sort_by_keyyNCNvMs_B17_INtB17_8ResUnitsINtNtNtCscUtGwbhD4WH_5gimli4read12endian_slice11EndianSliceNtNtB3b_9endianity12LittleEndianEE5parses2_0E0ECsg55jX0GwzBC_3std, symObjAddr: 0xFE58, symBinAddr: 0x10000F03C, symSize: 0x6B4 }
  - { offsetInCU: 0xE6E9, offset: 0x12141, size: 0x8, addend: 0x0, symName: __RINvNtNtNtNtCsl8K0bEFm1U0_4core5slice4sort6stable9quicksort9quicksortNtNtCs2IzQ63mrjeP_9addr2line8function15FunctionAddressNCINvMNtCs1OjIl8oxbrv_5alloc5sliceSB15_11sort_by_keyyNCNvMs0_B17_INtB17_9FunctionsINtNtNtCscUtGwbhD4WH_5gimli4read12endian_slice11EndianSliceNtNtB3o_9endianity12LittleEndianEE5parses_0E0ECsg55jX0GwzBC_3std, symObjAddr: 0x1050C, symBinAddr: 0x10000F6F0, symSize: 0x7E4 }
  - { offsetInCU: 0xF263, offset: 0x12CBB, size: 0x8, addend: 0x0, symName: __RINvNtNtNtNtCsl8K0bEFm1U0_4core5slice4sort6stable9quicksort9quicksortNtNtCs2IzQ63mrjeP_9addr2line8function22InlinedFunctionAddressNCINvMNtCs1OjIl8oxbrv_5alloc5sliceSB15_7sort_byNCNvMs1_B17_INtB17_8FunctionINtNtNtCscUtGwbhD4WH_5gimli4read12endian_slice11EndianSliceNtNtB3o_9endianity12LittleEndianEE5parse0E0ECsg55jX0GwzBC_3std, symObjAddr: 0x10CF0, symBinAddr: 0x10000FED4, symSize: 0x718 }
  - { offsetInCU: 0xF964, offset: 0x133BC, size: 0x8, addend: 0x0, symName: __RINvNtNtNtNtCsl8K0bEFm1U0_4core5slice4sort6stable9quicksort9quicksortNtNtCsjiK8NK7psZe_6object4read14ObjectMapEntryNCINvMNtCs1OjIl8oxbrv_5alloc5sliceSB15_11sort_by_keyyNCNvMs7_B17_INtB17_9SymbolMapB15_E3new0E0ECsg55jX0GwzBC_3std, symObjAddr: 0x11408, symBinAddr: 0x1000105EC, symSize: 0x800 }
  - { offsetInCU: 0x104EB, offset: 0x13F43, size: 0x8, addend: 0x0, symName: __RINvNtNtNtNtCsl8K0bEFm1U0_4core5slice4sort6stable9quicksort9quicksortTNtNtCscUtGwbhD4WH_5gimli6common15DebugInfoOffsetNtB18_18DebugArangesOffsetENCINvMNtCs1OjIl8oxbrv_5alloc5sliceSB15_11sort_by_keyB16_NCNvMs_NtCs2IzQ63mrjeP_9addr2line4unitINtB3k_8ResUnitsINtNtNtB1a_4read12endian_slice11EndianSliceNtNtB1a_9endianity12LittleEndianEE5parse0E0ECsg55jX0GwzBC_3std, symObjAddr: 0x11C08, symBinAddr: 0x100010DEC, symSize: 0x7F4 }
  - { offsetInCU: 0x11481, offset: 0x14ED9, size: 0x8, addend: 0x0, symName: __RINvNtNtNtNtCsl8K0bEFm1U0_4core5slice4sort6shared9smallsort12sort4_stableNtNtCs2IzQ63mrjeP_9addr2line8function22InlinedFunctionAddressNCINvMNtCs1OjIl8oxbrv_5alloc5sliceSB19_7sort_byNCNvMs1_B1b_INtB1b_8FunctionINtNtNtCscUtGwbhD4WH_5gimli4read12endian_slice11EndianSliceNtNtB3s_9endianity12LittleEndianEE5parse0E0ECsg55jX0GwzBC_3std, symObjAddr: 0xC70C, symBinAddr: 0x10000B8F0, symSize: 0x17C }
  - { offsetInCU: 0x11624, offset: 0x1507C, size: 0x8, addend: 0x0, symName: __RINvNtNtNtNtCsl8K0bEFm1U0_4core5slice4sort6shared9smallsort12sort4_stableTRShyENCINvMB8_SB19_20sort_unstable_by_keyB1a_NCNvMs_NtNtNtNtCsg55jX0GwzBC_3std12backtrace_rs9symbolize5gimli5machoNtB20_6Object5parses_0E0EB28_, symObjAddr: 0xC888, symBinAddr: 0x10000BA6C, symSize: 0x180 }
  - { offsetInCU: 0x11A40, offset: 0x15498, size: 0x8, addend: 0x0, symName: __RINvNtNtNtNtCsl8K0bEFm1U0_4core5slice4sort6shared9smallsort12sort8_stableTNtNtCscUtGwbhD4WH_5gimli6common15DebugInfoOffsetNtB1c_18DebugArangesOffsetENCINvMNtCs1OjIl8oxbrv_5alloc5sliceSB19_11sort_by_keyB1a_NCNvMs_NtCs2IzQ63mrjeP_9addr2line4unitINtB3o_8ResUnitsINtNtNtB1e_4read12endian_slice11EndianSliceNtNtB1e_9endianity12LittleEndianEE5parse0E0ECsg55jX0GwzBC_3std, symObjAddr: 0xCA08, symBinAddr: 0x10000BBEC, symSize: 0x2B8 }
  - { offsetInCU: 0x11F1A, offset: 0x15972, size: 0x8, addend: 0x0, symName: __RINvNtNtNtNtCsl8K0bEFm1U0_4core5slice4sort6shared9smallsort18small_sort_generalTRShyENCINvMB8_SB1f_20sort_unstable_by_keyB1g_NCNvMs_NtNtNtNtCsg55jX0GwzBC_3std12backtrace_rs9symbolize5gimli5machoNtB26_6Object5parses_0E0EB2e_, symObjAddr: 0xCCC0, symBinAddr: 0x10000BEA4, symSize: 0x3E8 }
  - { offsetInCU: 0x12483, offset: 0x15EDB, size: 0x8, addend: 0x0, symName: __RINvNtNtNtNtCsl8K0bEFm1U0_4core5slice4sort6shared9smallsort18small_sort_generalTRShyENCINvMB8_SB1f_20sort_unstable_by_keyyNCNvMs_NtNtNtNtCsg55jX0GwzBC_3std12backtrace_rs9symbolize5gimli5machoNtB23_6Object5parses0_0E0EB2b_, symObjAddr: 0xD0A8, symBinAddr: 0x10000C28C, symSize: 0x490 }
  - { offsetInCU: 0x12B61, offset: 0x165B9, size: 0x8, addend: 0x0, symName: __RINvNtNtNtNtCsl8K0bEFm1U0_4core5slice4sort6shared9smallsort25insertion_sort_shift_leftNtNtCs2IzQ63mrjeP_9addr2line4line12LineSequenceNCINvMNtCs1OjIl8oxbrv_5alloc5sliceSB1m_11sort_by_keyyNCINvMs_B1o_NtB1o_5Lines5parseINtNtNtCscUtGwbhD4WH_5gimli4read12endian_slice11EndianSliceNtNtB3z_9endianity12LittleEndianEEs_0E0ECsg55jX0GwzBC_3std, symObjAddr: 0xD538, symBinAddr: 0x10000C71C, symSize: 0x94 }
  - { offsetInCU: 0x12C34, offset: 0x1668C, size: 0x8, addend: 0x0, symName: __RINvNtNtNtNtCsl8K0bEFm1U0_4core5slice4sort6shared9smallsort25insertion_sort_shift_leftNtNtCs2IzQ63mrjeP_9addr2line8function22InlinedFunctionAddressNCINvMNtCs1OjIl8oxbrv_5alloc5sliceSB1m_7sort_byNCNvMs1_B1o_INtB1o_8FunctionINtNtNtCscUtGwbhD4WH_5gimli4read12endian_slice11EndianSliceNtNtB3F_9endianity12LittleEndianEE5parse0E0ECsg55jX0GwzBC_3std, symObjAddr: 0xD5CC, symBinAddr: 0x10000C7B0, symSize: 0xB8 }
  - { offsetInCU: 0x12D5D, offset: 0x167B5, size: 0x8, addend: 0x0, symName: __RINvNtNtNtNtCsl8K0bEFm1U0_4core5slice4sort6shared9smallsort25insertion_sort_shift_leftNtNtCsjiK8NK7psZe_6object4read14ObjectMapEntryNCINvMNtCs1OjIl8oxbrv_5alloc5sliceSB1m_11sort_by_keyyNCNvMs7_B1o_INtB1o_9SymbolMapB1m_E3new0E0ECsg55jX0GwzBC_3std, symObjAddr: 0xD684, symBinAddr: 0x10000C868, symSize: 0xA8 }
  - { offsetInCU: 0x12E23, offset: 0x1687B, size: 0x8, addend: 0x0, symName: __RINvNtNtNtNtCsl8K0bEFm1U0_4core5slice4sort6shared9smallsort25insertion_sort_shift_leftTRShyENCINvMB8_SB1m_20sort_unstable_by_keyB1n_NCNvMs_NtNtNtNtCsg55jX0GwzBC_3std12backtrace_rs9symbolize5gimli5machoNtB2d_6Object5parses_0E0EB2l_, symObjAddr: 0xD72C, symBinAddr: 0x10000C910, symSize: 0xF4 }
  - { offsetInCU: 0x1320C, offset: 0x16C64, size: 0x8, addend: 0x0, symName: __RINvNtNtNtNtCsl8K0bEFm1U0_4core5slice4sort6shared5pivot11median3_recNtNtCs2IzQ63mrjeP_9addr2line4line12LineSequenceNCINvMNtCs1OjIl8oxbrv_5alloc5sliceSB14_11sort_by_keyyNCINvMs_B16_NtB16_5Lines5parseINtNtNtCscUtGwbhD4WH_5gimli4read12endian_slice11EndianSliceNtNtB3h_9endianity12LittleEndianEEs_0E0ECsg55jX0GwzBC_3std, symObjAddr: 0xBFEC, symBinAddr: 0x10000B1D0, symSize: 0xCC }
  - { offsetInCU: 0x13301, offset: 0x16D59, size: 0x8, addend: 0x0, symName: __RINvNtNtNtNtCsl8K0bEFm1U0_4core5slice4sort6shared5pivot11median3_recNtNtCs2IzQ63mrjeP_9addr2line4unit9UnitRangeNCINvMNtCs1OjIl8oxbrv_5alloc5sliceSB14_11sort_by_keyyNCNvMs_B16_INtB16_8ResUnitsINtNtNtCscUtGwbhD4WH_5gimli4read12endian_slice11EndianSliceNtNtB3a_9endianity12LittleEndianEE5parses2_0E0ECsg55jX0GwzBC_3std, symObjAddr: 0xC0B8, symBinAddr: 0x10000B29C, symSize: 0xCC }
  - { offsetInCU: 0x133F6, offset: 0x16E4E, size: 0x8, addend: 0x0, symName: __RINvNtNtNtNtCsl8K0bEFm1U0_4core5slice4sort6shared5pivot11median3_recNtNtCs2IzQ63mrjeP_9addr2line8function15FunctionAddressNCINvMNtCs1OjIl8oxbrv_5alloc5sliceSB14_11sort_by_keyyNCNvMs0_B16_INtB16_9FunctionsINtNtNtCscUtGwbhD4WH_5gimli4read12endian_slice11EndianSliceNtNtB3n_9endianity12LittleEndianEE5parses_0E0ECsg55jX0GwzBC_3std, symObjAddr: 0xC184, symBinAddr: 0x10000B368, symSize: 0xD0 }
  - { offsetInCU: 0x134EB, offset: 0x16F43, size: 0x8, addend: 0x0, symName: __RINvNtNtNtNtCsl8K0bEFm1U0_4core5slice4sort6shared5pivot11median3_recNtNtCs2IzQ63mrjeP_9addr2line8function22InlinedFunctionAddressNCINvMNtCs1OjIl8oxbrv_5alloc5sliceSB14_7sort_byNCNvMs1_B16_INtB16_8FunctionINtNtNtCscUtGwbhD4WH_5gimli4read12endian_slice11EndianSliceNtNtB3n_9endianity12LittleEndianEE5parse0E0ECsg55jX0GwzBC_3std, symObjAddr: 0xC254, symBinAddr: 0x10000B438, symSize: 0x118 }
  - { offsetInCU: 0x135E1, offset: 0x17039, size: 0x8, addend: 0x0, symName: __RINvNtNtNtNtCsl8K0bEFm1U0_4core5slice4sort6shared5pivot11median3_recNtNtCsjiK8NK7psZe_6object4read14ObjectMapEntryNCINvMNtCs1OjIl8oxbrv_5alloc5sliceSB14_11sort_by_keyyNCNvMs7_B16_INtB16_9SymbolMapB14_E3new0E0ECsg55jX0GwzBC_3std, symObjAddr: 0xC36C, symBinAddr: 0x10000B550, symSize: 0xD0 }
  - { offsetInCU: 0x136D6, offset: 0x1712E, size: 0x8, addend: 0x0, symName: __RINvNtNtNtNtCsl8K0bEFm1U0_4core5slice4sort6shared5pivot11median3_recTNtNtCscUtGwbhD4WH_5gimli6common15DebugInfoOffsetNtB17_18DebugArangesOffsetENCINvMNtCs1OjIl8oxbrv_5alloc5sliceSB14_11sort_by_keyB15_NCNvMs_NtCs2IzQ63mrjeP_9addr2line4unitINtB3j_8ResUnitsINtNtNtB19_4read12endian_slice11EndianSliceNtNtB19_9endianity12LittleEndianEE5parse0E0ECsg55jX0GwzBC_3std, symObjAddr: 0xC43C, symBinAddr: 0x10000B620, symSize: 0xCC }
  - { offsetInCU: 0x137F7, offset: 0x1724F, size: 0x8, addend: 0x0, symName: __RINvNtNtNtNtCsl8K0bEFm1U0_4core5slice4sort6shared5pivot11median3_recTRShyENCINvMB8_SB14_20sort_unstable_by_keyB15_NCNvMs_NtNtNtNtCsg55jX0GwzBC_3std12backtrace_rs9symbolize5gimli5machoNtB1V_6Object5parses_0E0EB23_, symObjAddr: 0xC508, symBinAddr: 0x10000B6EC, symSize: 0x134 }
  - { offsetInCU: 0x13A1A, offset: 0x17472, size: 0x8, addend: 0x0, symName: __RINvNtNtNtNtCsl8K0bEFm1U0_4core5slice4sort6shared5pivot11median3_recTRShyENCINvMB8_SB14_20sort_unstable_by_keyyNCNvMs_NtNtNtNtCsg55jX0GwzBC_3std12backtrace_rs9symbolize5gimli5machoNtB1S_6Object5parses0_0E0EB20_, symObjAddr: 0xC63C, symBinAddr: 0x10000B820, symSize: 0xD0 }
  - { offsetInCU: 0x13BB4, offset: 0x1760C, size: 0x8, addend: 0x0, symName: __RINvNtNtNtCsl8K0bEFm1U0_4core5slice4sort8unstable7ipnsortTRShyENCINvMB6_SBT_20sort_unstable_by_keyBU_NCNvMs_NtNtNtNtCsg55jX0GwzBC_3std12backtrace_rs9symbolize5gimli5machoNtB1I_6Object5parses_0E0EB1Q_, symObjAddr: 0xBCA8, symBinAddr: 0x10000AF10, symSize: 0x1A8 }
  - { offsetInCU: 0x13E75, offset: 0x178CD, size: 0x8, addend: 0x0, symName: __RINvNtNtNtCsl8K0bEFm1U0_4core5slice4sort8unstable7ipnsortTRShyENCINvMB6_SBT_20sort_unstable_by_keyyNCNvMs_NtNtNtNtCsg55jX0GwzBC_3std12backtrace_rs9symbolize5gimli5machoNtB1G_6Object5parses0_0E0EB1O_, symObjAddr: 0xBE50, symBinAddr: 0x10000B0B8, symSize: 0xEC }
  - { offsetInCU: 0x13FC6, offset: 0x17A1E, size: 0x8, addend: 0x0, symName: __RINvNtNtNtNtCsl8K0bEFm1U0_4core5slice4sort8unstable8heapsort8heapsortTRShyENCINvMB8_SB15_20sort_unstable_by_keyB16_NCNvMs_NtNtNtNtCsg55jX0GwzBC_3std12backtrace_rs9symbolize5gimli5machoNtB1W_6Object5parses_0E0EB24_, symObjAddr: 0x123FC, symBinAddr: 0x1000115E0, symSize: 0x160 }
  - { offsetInCU: 0x142BC, offset: 0x17D14, size: 0x8, addend: 0x0, symName: __RINvNtNtNtNtCsl8K0bEFm1U0_4core5slice4sort8unstable8heapsort8heapsortTRShyENCINvMB8_SB15_20sort_unstable_by_keyyNCNvMs_NtNtNtNtCsg55jX0GwzBC_3std12backtrace_rs9symbolize5gimli5machoNtB1T_6Object5parses0_0E0EB21_, symObjAddr: 0x1255C, symBinAddr: 0x100011740, symSize: 0x100 }
  - { offsetInCU: 0x1454E, offset: 0x17FA6, size: 0x8, addend: 0x0, symName: __RINvNtNtNtNtCsl8K0bEFm1U0_4core5slice4sort8unstable9quicksort9quicksortTRShyENCINvMB8_SB17_20sort_unstable_by_keyB18_NCNvMs_NtNtNtNtCsg55jX0GwzBC_3std12backtrace_rs9symbolize5gimli5machoNtB1Y_6Object5parses_0E0EB26_, symObjAddr: 0x1265C, symBinAddr: 0x100011840, symSize: 0x510 }
  - { offsetInCU: 0x14F8A, offset: 0x189E2, size: 0x8, addend: 0x0, symName: __RINvNtNtNtNtCsl8K0bEFm1U0_4core5slice4sort8unstable9quicksort9quicksortTRShyENCINvMB8_SB17_20sort_unstable_by_keyyNCNvMs_NtNtNtNtCsg55jX0GwzBC_3std12backtrace_rs9symbolize5gimli5machoNtB1V_6Object5parses0_0E0EB23_, symObjAddr: 0x12B6C, symBinAddr: 0x100011D50, symSize: 0x3D8 }
  - { offsetInCU: 0x16FE0, offset: 0x1AA38, size: 0x8, addend: 0x0, symName: __RINvNtCsl8K0bEFm1U0_4core3ptr13drop_in_placeINtCs2IzQ63mrjeP_9addr2line7ContextINtNtNtCscUtGwbhD4WH_5gimli4read12endian_slice11EndianSliceNtNtB1m_9endianity12LittleEndianEEECsg55jX0GwzBC_3std, symObjAddr: 0x632C, symBinAddr: 0x100006CD0, symSize: 0x70 }
  - { offsetInCU: 0x1708A, offset: 0x1AAE2, size: 0x8, addend: 0x0, symName: __RINvNtCsl8K0bEFm1U0_4core3ptr13drop_in_placeINtNtB4_3pin3PinINtNtCs1OjIl8oxbrv_5alloc5boxed3BoxNtNtNtNtNtNtCsg55jX0GwzBC_3std3sys3pal4unix4sync5mutex5MutexEEEB1H_, symObjAddr: 0x639C, symBinAddr: 0x100006D40, symSize: 0x2C }
  - { offsetInCU: 0x1714B, offset: 0x1ABA3, size: 0x8, addend: 0x0, symName: __RINvNtCsl8K0bEFm1U0_4core3ptr13drop_in_placeINtNtB4_6option6OptionINtNtNtCscUtGwbhD4WH_5gimli4read4line21IncompleteLineProgramINtNtB17_12endian_slice11EndianSliceNtNtB19_9endianity12LittleEndianEjEEECsg55jX0GwzBC_3std, symObjAddr: 0x63EC, symBinAddr: 0x100006D6C, symSize: 0x98 }
  - { offsetInCU: 0x174B7, offset: 0x1AF0F, size: 0x8, addend: 0x0, symName: __RINvNtCsl8K0bEFm1U0_4core3ptr13drop_in_placeINtNtB4_6option6OptionNtNtCsjiK8NK7psZe_6object4read9ObjectMapEECsg55jX0GwzBC_3std, symObjAddr: 0x6498, symBinAddr: 0x100006E04, symSize: 0x64 }
  - { offsetInCU: 0x17685, offset: 0x1B0DD, size: 0x8, addend: 0x0, symName: __RINvNtCsl8K0bEFm1U0_4core3ptr13drop_in_placeINtNtB4_6option6OptionNtNtNtNtCsg55jX0GwzBC_3std12backtrace_rs9symbolize5gimli7MappingEEB1a_, symObjAddr: 0x6520, symBinAddr: 0x100006E68, symSize: 0x6C }
  - { offsetInCU: 0x17746, offset: 0x1B19E, size: 0x8, addend: 0x0, symName: __RINvNtCsl8K0bEFm1U0_4core3ptr13drop_in_placeINtNtB4_6result6ResultINtNtB4_6option6OptionINtNtCs1OjIl8oxbrv_5alloc5boxed3BoxINtNtCs2IzQ63mrjeP_9addr2line4unit7DwoUnitINtNtNtCscUtGwbhD4WH_5gimli4read12endian_slice11EndianSliceNtNtB2K_9endianity12LittleEndianEEEENtB2I_5ErrorEECsg55jX0GwzBC_3std, symObjAddr: 0x65A4, symBinAddr: 0x100006ED4, symSize: 0xD4 }
  - { offsetInCU: 0x179C0, offset: 0x1B418, size: 0x8, addend: 0x0, symName: __RINvNtCsl8K0bEFm1U0_4core3ptr13drop_in_placeINtNtB4_6result6ResultINtNtCs2IzQ63mrjeP_9addr2line5frame9FrameIterINtNtNtCscUtGwbhD4WH_5gimli4read12endian_slice11EndianSliceNtNtB1S_9endianity12LittleEndianEENtB1Q_5ErrorEECsg55jX0GwzBC_3std, symObjAddr: 0x6678, symBinAddr: 0x100006FA8, symSize: 0x2C }
  - { offsetInCU: 0x17B15, offset: 0x1B56D, size: 0x8, addend: 0x0, symName: __RINvNtCsl8K0bEFm1U0_4core3ptr13drop_in_placeINtNtB4_6result6ResultINtNtCs2IzQ63mrjeP_9addr2line8function9FunctionsINtNtNtCscUtGwbhD4WH_5gimli4read12endian_slice11EndianSliceNtNtB1V_9endianity12LittleEndianEENtB1T_5ErrorEECsg55jX0GwzBC_3std, symObjAddr: 0x66A4, symBinAddr: 0x100006FD4, symSize: 0xD8 }
  - { offsetInCU: 0x17E50, offset: 0x1B8A8, size: 0x8, addend: 0x0, symName: __RINvNtCsl8K0bEFm1U0_4core3ptr13drop_in_placeINtNtB4_6result6ResultINtNtNtNtCsg55jX0GwzBC_3std4sync6poison5mutex10MutexGuarduEINtB17_11PoisonErrorB12_EEEB1b_, symObjAddr: 0x677C, symBinAddr: 0x1000070AC, symSize: 0x4C }
  - { offsetInCU: 0x17E8A, offset: 0x1B8E2, size: 0x8, addend: 0x0, symName: __RINvNtCsl8K0bEFm1U0_4core3ptr13drop_in_placeINtNtB4_6result6ResultNtNtCs2IzQ63mrjeP_9addr2line4line5LinesNtNtCscUtGwbhD4WH_5gimli4read5ErrorEECsg55jX0GwzBC_3std, symObjAddr: 0x67C8, symBinAddr: 0x1000070F8, symSize: 0xE4 }
  - { offsetInCU: 0x181AE, offset: 0x1BC06, size: 0x8, addend: 0x0, symName: __RINvNtCsl8K0bEFm1U0_4core3ptr13drop_in_placeINtNtB4_6result6ResultRIBH_INtNtB4_6option6OptionINtNtCs1OjIl8oxbrv_5alloc5boxed3BoxINtNtCs2IzQ63mrjeP_9addr2line4unit7DwoUnitINtNtNtCscUtGwbhD4WH_5gimli4read12endian_slice11EndianSliceNtNtB2P_9endianity12LittleEndianEEEENtB2N_5ErrorETB12_B13_EEECsg55jX0GwzBC_3std, symObjAddr: 0x68D8, symBinAddr: 0x1000071DC, symSize: 0x14 }
  - { offsetInCU: 0x181EB, offset: 0x1BC43, size: 0x8, addend: 0x0, symName: __RINvNtCsl8K0bEFm1U0_4core3ptr13drop_in_placeINtNtB4_6result6ResultRIBH_INtNtCs2IzQ63mrjeP_9addr2line8function8FunctionINtNtNtCscUtGwbhD4WH_5gimli4read12endian_slice11EndianSliceNtNtB1Z_9endianity12LittleEndianEENtB1X_5ErrorETB12_B13_EEECsg55jX0GwzBC_3std, symObjAddr: 0x68EC, symBinAddr: 0x1000071F0, symSize: 0x64 }
  - { offsetInCU: 0x1839D, offset: 0x1BDF5, size: 0x8, addend: 0x0, symName: __RINvNtCsl8K0bEFm1U0_4core3ptr13drop_in_placeINtNtB4_6result6ResultRIBH_INtNtCs2IzQ63mrjeP_9addr2line8function9FunctionsINtNtNtCscUtGwbhD4WH_5gimli4read12endian_slice11EndianSliceNtNtB20_9endianity12LittleEndianEENtB1Y_5ErrorETB12_B13_EEECsg55jX0GwzBC_3std, symObjAddr: 0x6950, symBinAddr: 0x100007254, symSize: 0x10 }
  - { offsetInCU: 0x183DA, offset: 0x1BE32, size: 0x8, addend: 0x0, symName: __RINvNtCsl8K0bEFm1U0_4core3ptr13drop_in_placeINtNtB4_6result6ResultRIBH_NtNtCs2IzQ63mrjeP_9addr2line4line5LinesNtNtCscUtGwbhD4WH_5gimli4read5ErrorETB12_B13_EEECsg55jX0GwzBC_3std, symObjAddr: 0x6960, symBinAddr: 0x100007264, symSize: 0x10 }
  - { offsetInCU: 0x1843E, offset: 0x1BE96, size: 0x8, addend: 0x0, symName: __RINvNtCsl8K0bEFm1U0_4core3ptr13drop_in_placeINtNtB4_6result6ResultRNtNtNtCsg55jX0GwzBC_3std6thread6thread6ThreadTB12_B13_EEEB19_, symObjAddr: 0x6970, symBinAddr: 0x100007274, symSize: 0x28 }
  - { offsetInCU: 0x18531, offset: 0x1BF89, size: 0x8, addend: 0x0, symName: __RINvNtCsl8K0bEFm1U0_4core3ptr13drop_in_placeINtNtB4_6result6ResultuNtNtNtCsg55jX0GwzBC_3std2io5error5ErrorEEB19_, symObjAddr: 0x69A8, symBinAddr: 0x10000729C, symSize: 0x10 }
  - { offsetInCU: 0x18551, offset: 0x1BFA9, size: 0x8, addend: 0x0, symName: __RINvNtCsl8K0bEFm1U0_4core3ptr13drop_in_placeINtNtCs1OjIl8oxbrv_5alloc3vec3VecINtNtB4_6option6OptionIB1e_NtNtNtNtCsg55jX0GwzBC_3std12backtrace_rs9symbolize5gimli7MappingEEEEB1M_, symObjAddr: 0x69B8, symBinAddr: 0x1000072AC, symSize: 0x78 }
  - { offsetInCU: 0x1871A, offset: 0x1C172, size: 0x8, addend: 0x0, symName: __RINvNtCsl8K0bEFm1U0_4core3ptr13drop_in_placeINtNtCs1OjIl8oxbrv_5alloc3vec3VecINtNtCs2IzQ63mrjeP_9addr2line4unit7ResUnitINtNtNtCscUtGwbhD4WH_5gimli4read12endian_slice11EndianSliceNtNtB20_9endianity12LittleEndianEEEECsg55jX0GwzBC_3std, symObjAddr: 0x6AA0, symBinAddr: 0x100007324, symSize: 0xC4 }
  - { offsetInCU: 0x188F6, offset: 0x1C34E, size: 0x8, addend: 0x0, symName: __RINvNtCsl8K0bEFm1U0_4core3ptr13drop_in_placeINtNtCs1OjIl8oxbrv_5alloc3vec3VecINtNtCs2IzQ63mrjeP_9addr2line4unit7SupUnitINtNtNtCscUtGwbhD4WH_5gimli4read12endian_slice11EndianSliceNtNtB20_9endianity12LittleEndianEEEECsg55jX0GwzBC_3std, symObjAddr: 0x6B64, symBinAddr: 0x1000073E8, symSize: 0xF4 }
  - { offsetInCU: 0x18B55, offset: 0x1C5AD, size: 0x8, addend: 0x0, symName: __RINvNtCsl8K0bEFm1U0_4core3ptr13drop_in_placeINtNtCs1OjIl8oxbrv_5alloc3vec3VecINtNtCs2IzQ63mrjeP_9addr2line8function12LazyFunctionINtNtNtCscUtGwbhD4WH_5gimli4read12endian_slice11EndianSliceNtNtB2a_9endianity12LittleEndianEEEECsg55jX0GwzBC_3std, symObjAddr: 0x6C58, symBinAddr: 0x1000074DC, symSize: 0xAC }
  - { offsetInCU: 0x18E04, offset: 0x1C85C, size: 0x8, addend: 0x0, symName: __RINvNtCsl8K0bEFm1U0_4core3ptr13drop_in_placeINtNtCs1OjIl8oxbrv_5alloc3vec3VecNtNtBL_6string6StringEECsg55jX0GwzBC_3std, symObjAddr: 0x6D04, symBinAddr: 0x100007588, symSize: 0x80 }
  - { offsetInCU: 0x18FB0, offset: 0x1CA08, size: 0x8, addend: 0x0, symName: __RINvNtCsl8K0bEFm1U0_4core3ptr13drop_in_placeINtNtCs1OjIl8oxbrv_5alloc3vec3VecNtNtCs2IzQ63mrjeP_9addr2line4line12LineSequenceEECsg55jX0GwzBC_3std, symObjAddr: 0x6D84, symBinAddr: 0x100007608, symSize: 0x84 }
  - { offsetInCU: 0x1915D, offset: 0x1CBB5, size: 0x8, addend: 0x0, symName: __RINvNtCsl8K0bEFm1U0_4core3ptr13drop_in_placeINtNtCs1OjIl8oxbrv_5alloc3vec3VechEECsg55jX0GwzBC_3std, symObjAddr: 0x6F1C, symBinAddr: 0x10000768C, symSize: 0x18 }
  - { offsetInCU: 0x19206, offset: 0x1CC5E, size: 0x8, addend: 0x0, symName: __RINvNtCsl8K0bEFm1U0_4core3ptr13drop_in_placeINtNtCs1OjIl8oxbrv_5alloc4sync3ArcINtNtNtNtCsg55jX0GwzBC_3std4sync6poison5mutex5MutexINtNtBL_3vec3VechEEEEB1n_, symObjAddr: 0x6F34, symBinAddr: 0x1000076A4, symSize: 0x20 }
  - { offsetInCU: 0x1921D, offset: 0x1CC75, size: 0x8, addend: 0x0, symName: __RINvNtCsl8K0bEFm1U0_4core3ptr13drop_in_placeINtNtCs1OjIl8oxbrv_5alloc4sync3ArcINtNtNtNtCsg55jX0GwzBC_3std4sync6poison5mutex5MutexINtNtBL_3vec3VechEEEEB1n_, symObjAddr: 0x6F34, symBinAddr: 0x1000076A4, symSize: 0x20 }
  - { offsetInCU: 0x19232, offset: 0x1CC8A, size: 0x8, addend: 0x0, symName: __RINvNtCsl8K0bEFm1U0_4core3ptr13drop_in_placeINtNtCs1OjIl8oxbrv_5alloc4sync3ArcINtNtNtNtCsg55jX0GwzBC_3std4sync6poison5mutex5MutexINtNtBL_3vec3VechEEEEB1n_, symObjAddr: 0x6F34, symBinAddr: 0x1000076A4, symSize: 0x20 }
  - { offsetInCU: 0x19247, offset: 0x1CC9F, size: 0x8, addend: 0x0, symName: __RINvNtCsl8K0bEFm1U0_4core3ptr13drop_in_placeINtNtCs1OjIl8oxbrv_5alloc4sync3ArcINtNtNtNtCsg55jX0GwzBC_3std4sync6poison5mutex5MutexINtNtBL_3vec3VechEEEEB1n_, symObjAddr: 0x6F34, symBinAddr: 0x1000076A4, symSize: 0x20 }
  - { offsetInCU: 0x192B4, offset: 0x1CD0C, size: 0x8, addend: 0x0, symName: __RINvNtCsl8K0bEFm1U0_4core3ptr13drop_in_placeINtNtCs1OjIl8oxbrv_5alloc4sync8ArcInnerINtNtNtCscUtGwbhD4WH_5gimli4read5dwarf5DwarfINtNtB1o_12endian_slice11EndianSliceNtNtB1q_9endianity12LittleEndianEEEECsg55jX0GwzBC_3std, symObjAddr: 0x6F74, symBinAddr: 0x1000076C4, symSize: 0x5C }
  - { offsetInCU: 0x19368, offset: 0x1CDC0, size: 0x8, addend: 0x0, symName: __RINvNtCsl8K0bEFm1U0_4core3ptr13drop_in_placeINtNtCs1OjIl8oxbrv_5alloc4sync8ArcInnerNtNtNtNtCsg55jX0GwzBC_3std3sys2fs4unix12InnerReadDirEEB1r_, symObjAddr: 0x6FD0, symBinAddr: 0x100007720, symSize: 0x60 }
  - { offsetInCU: 0x19590, offset: 0x1CFE8, size: 0x8, addend: 0x0, symName: __RINvNtCsl8K0bEFm1U0_4core3ptr13drop_in_placeINtNtCs1OjIl8oxbrv_5alloc5boxed3BoxDG0_INtNtNtB4_3ops8function2FnTRL1_INtNtCsg55jX0GwzBC_3std5panic13PanicHookInfoL0_EEEp6OutputuNtNtB4_6marker4SyncNtB2N_4SendEL_EEB1T_, symObjAddr: 0x7030, symBinAddr: 0x100007780, symSize: 0x78 }
  - { offsetInCU: 0x1972C, offset: 0x1D184, size: 0x8, addend: 0x0, symName: __RINvNtCsl8K0bEFm1U0_4core3ptr13drop_in_placeINtNtCs1OjIl8oxbrv_5alloc5boxed3BoxSINtNtB4_6option6OptionIB1h_NtNtNtNtCsg55jX0GwzBC_3std12backtrace_rs9symbolize5gimli7MappingEEEEB1P_, symObjAddr: 0x7154, symBinAddr: 0x1000077F8, symSize: 0xF8 }
  - { offsetInCU: 0x1989C, offset: 0x1D2F4, size: 0x8, addend: 0x0, symName: __RINvNtCsl8K0bEFm1U0_4core3ptr13drop_in_placeINtNtCs1OjIl8oxbrv_5alloc5boxed3BoxSINtNtCs2IzQ63mrjeP_9addr2line8function12LazyFunctionINtNtNtCscUtGwbhD4WH_5gimli4read12endian_slice11EndianSliceNtNtB2d_9endianity12LittleEndianEEEECsg55jX0GwzBC_3std, symObjAddr: 0x724C, symBinAddr: 0x1000078F0, symSize: 0x9C }
  - { offsetInCU: 0x198B3, offset: 0x1D30B, size: 0x8, addend: 0x0, symName: __RINvNtCsl8K0bEFm1U0_4core3ptr13drop_in_placeINtNtCs1OjIl8oxbrv_5alloc5boxed3BoxSINtNtCs2IzQ63mrjeP_9addr2line8function12LazyFunctionINtNtNtCscUtGwbhD4WH_5gimli4read12endian_slice11EndianSliceNtNtB2d_9endianity12LittleEndianEEEECsg55jX0GwzBC_3std, symObjAddr: 0x724C, symBinAddr: 0x1000078F0, symSize: 0x9C }
  - { offsetInCU: 0x19B08, offset: 0x1D560, size: 0x8, addend: 0x0, symName: __RINvNtCsl8K0bEFm1U0_4core3ptr13drop_in_placeINtNtCs1OjIl8oxbrv_5alloc5boxed3BoxSNtNtBL_6string6StringEECsg55jX0GwzBC_3std, symObjAddr: 0x72E8, symBinAddr: 0x10000798C, symSize: 0x70 }
  - { offsetInCU: 0x19B1F, offset: 0x1D577, size: 0x8, addend: 0x0, symName: __RINvNtCsl8K0bEFm1U0_4core3ptr13drop_in_placeINtNtCs1OjIl8oxbrv_5alloc5boxed3BoxSNtNtBL_6string6StringEECsg55jX0GwzBC_3std, symObjAddr: 0x72E8, symBinAddr: 0x10000798C, symSize: 0x70 }
  - { offsetInCU: 0x19D00, offset: 0x1D758, size: 0x8, addend: 0x0, symName: __RINvNtCsl8K0bEFm1U0_4core3ptr13drop_in_placeINtNtCs2IzQ63mrjeP_9addr2line4unit7ResUnitINtNtNtCscUtGwbhD4WH_5gimli4read12endian_slice11EndianSliceNtNtB1t_9endianity12LittleEndianEEECsg55jX0GwzBC_3std, symObjAddr: 0x7358, symBinAddr: 0x1000079FC, symSize: 0xE4 }
  - { offsetInCU: 0x19F1D, offset: 0x1D975, size: 0x8, addend: 0x0, symName: __RINvNtCsl8K0bEFm1U0_4core3ptr13drop_in_placeINtNtCs2IzQ63mrjeP_9addr2line4unit7SupUnitINtNtNtCscUtGwbhD4WH_5gimli4read12endian_slice11EndianSliceNtNtB1t_9endianity12LittleEndianEEECsg55jX0GwzBC_3std, symObjAddr: 0x743C, symBinAddr: 0x100007AE0, symSize: 0x54 }
  - { offsetInCU: 0x19FE7, offset: 0x1DA3F, size: 0x8, addend: 0x0, symName: __RINvNtCsl8K0bEFm1U0_4core3ptr13drop_in_placeINtNtCs2IzQ63mrjeP_9addr2line4unit8ResUnitsINtNtNtCscUtGwbhD4WH_5gimli4read12endian_slice11EndianSliceNtNtB1u_9endianity12LittleEndianEEECsg55jX0GwzBC_3std, symObjAddr: 0x7490, symBinAddr: 0x100007B34, symSize: 0xD0 }
  - { offsetInCU: 0x1A1F2, offset: 0x1DC4A, size: 0x8, addend: 0x0, symName: __RINvNtCsl8K0bEFm1U0_4core3ptr13drop_in_placeINtNtCs2IzQ63mrjeP_9addr2line4unit8SupUnitsINtNtNtCscUtGwbhD4WH_5gimli4read12endian_slice11EndianSliceNtNtB1u_9endianity12LittleEndianEEECsg55jX0GwzBC_3std, symObjAddr: 0x7560, symBinAddr: 0x100007C04, symSize: 0xE4 }
  - { offsetInCU: 0x1A3F7, offset: 0x1DE4F, size: 0x8, addend: 0x0, symName: __RINvNtCsl8K0bEFm1U0_4core3ptr13drop_in_placeINtNtCs2IzQ63mrjeP_9addr2line8function12LazyFunctionINtNtNtCscUtGwbhD4WH_5gimli4read12endian_slice11EndianSliceNtNtB1D_9endianity12LittleEndianEEECsg55jX0GwzBC_3std, symObjAddr: 0x7644, symBinAddr: 0x100007CE8, symSize: 0x64 }
  - { offsetInCU: 0x1A40E, offset: 0x1DE66, size: 0x8, addend: 0x0, symName: __RINvNtCsl8K0bEFm1U0_4core3ptr13drop_in_placeINtNtCs2IzQ63mrjeP_9addr2line8function12LazyFunctionINtNtNtCscUtGwbhD4WH_5gimli4read12endian_slice11EndianSliceNtNtB1D_9endianity12LittleEndianEEECsg55jX0GwzBC_3std, symObjAddr: 0x7644, symBinAddr: 0x100007CE8, symSize: 0x64 }
  - { offsetInCU: 0x1A423, offset: 0x1DE7B, size: 0x8, addend: 0x0, symName: __RINvNtCsl8K0bEFm1U0_4core3ptr13drop_in_placeINtNtCs2IzQ63mrjeP_9addr2line8function12LazyFunctionINtNtNtCscUtGwbhD4WH_5gimli4read12endian_slice11EndianSliceNtNtB1D_9endianity12LittleEndianEEECsg55jX0GwzBC_3std, symObjAddr: 0x7644, symBinAddr: 0x100007CE8, symSize: 0x64 }
  - { offsetInCU: 0x1A438, offset: 0x1DE90, size: 0x8, addend: 0x0, symName: __RINvNtCsl8K0bEFm1U0_4core3ptr13drop_in_placeINtNtCs2IzQ63mrjeP_9addr2line8function12LazyFunctionINtNtNtCscUtGwbhD4WH_5gimli4read12endian_slice11EndianSliceNtNtB1D_9endianity12LittleEndianEEECsg55jX0GwzBC_3std, symObjAddr: 0x7644, symBinAddr: 0x100007CE8, symSize: 0x64 }
  - { offsetInCU: 0x1A5C1, offset: 0x1E019, size: 0x8, addend: 0x0, symName: __RINvNtCsl8K0bEFm1U0_4core3ptr13drop_in_placeINtNtNtCscUtGwbhD4WH_5gimli4read4line8LineRowsINtNtBL_12endian_slice11EndianSliceNtNtBN_9endianity12LittleEndianEINtBJ_21IncompleteLineProgramB1q_jEjEECsg55jX0GwzBC_3std, symObjAddr: 0x7760, symBinAddr: 0x100007D4C, symSize: 0x8C }
  - { offsetInCU: 0x1A8C5, offset: 0x1E31D, size: 0x8, addend: 0x0, symName: __RINvNtCsl8K0bEFm1U0_4core3ptr13drop_in_placeINtNtNtCscUtGwbhD4WH_5gimli4read5dwarf4UnitINtNtBL_12endian_slice11EndianSliceNtNtBN_9endianity12LittleEndianEjEECsg55jX0GwzBC_3std, symObjAddr: 0x77EC, symBinAddr: 0x100007DD8, symSize: 0x54 }
  - { offsetInCU: 0x1A95F, offset: 0x1E3B7, size: 0x8, addend: 0x0, symName: __RINvNtCsl8K0bEFm1U0_4core3ptr13drop_in_placeINtNtNtCscUtGwbhD4WH_5gimli4read5dwarf5DwarfINtNtBL_12endian_slice11EndianSliceNtNtBN_9endianity12LittleEndianEEECsg55jX0GwzBC_3std, symObjAddr: 0x7840, symBinAddr: 0x100007E2C, symSize: 0x58 }
  - { offsetInCU: 0x1AA01, offset: 0x1E459, size: 0x8, addend: 0x0, symName: __RINvNtCsl8K0bEFm1U0_4core3ptr13drop_in_placeINtNtNtNtCsg55jX0GwzBC_3std2io8buffered10linewriter10LineWriterNtNtBN_5stdio9StdoutRawEEBP_, symObjAddr: 0x7A9C, symBinAddr: 0x100007E84, symSize: 0x84 }
  - { offsetInCU: 0x1ABA4, offset: 0x1E5FC, size: 0x8, addend: 0x0, symName: __RINvNtCsl8K0bEFm1U0_4core3ptr13drop_in_placeINtNtNtNtCsg55jX0GwzBC_3std4sync6poison5mutex10MutexGuardINtNtCs1OjIl8oxbrv_5alloc3vec3VechEEEBP_, symObjAddr: 0x7B9C, symBinAddr: 0x100007F08, symSize: 0x54 }
  - { offsetInCU: 0x1ABBB, offset: 0x1E613, size: 0x8, addend: 0x0, symName: __RINvNtCsl8K0bEFm1U0_4core3ptr13drop_in_placeINtNtNtNtCsg55jX0GwzBC_3std4sync6poison5mutex10MutexGuardINtNtCs1OjIl8oxbrv_5alloc3vec3VechEEEBP_, symObjAddr: 0x7B9C, symBinAddr: 0x100007F08, symSize: 0x54 }
  - { offsetInCU: 0x1AC9A, offset: 0x1E6F2, size: 0x8, addend: 0x0, symName: __RINvNtCsl8K0bEFm1U0_4core3ptr13drop_in_placeINtNtNtNtCsg55jX0GwzBC_3std4sync6poison6rwlock15RwLockReadGuarduEEBP_, symObjAddr: 0x7BF0, symBinAddr: 0x100007F5C, symSize: 0x58 }
  - { offsetInCU: 0x1AD33, offset: 0x1E78B, size: 0x8, addend: 0x0, symName: __RINvNtCsl8K0bEFm1U0_4core3ptr13drop_in_placeINtNvNtCsg55jX0GwzBC_3std2io17default_write_fmt7AdapterINtNtBL_6cursor6CursorQShEEEBN_, symObjAddr: 0x7C48, symBinAddr: 0x100007FB4, symSize: 0x10 }
  - { offsetInCU: 0x1AD4A, offset: 0x1E7A2, size: 0x8, addend: 0x0, symName: __RINvNtCsl8K0bEFm1U0_4core3ptr13drop_in_placeINtNvNtCsg55jX0GwzBC_3std2io17default_write_fmt7AdapterINtNtBL_6cursor6CursorQShEEEBN_, symObjAddr: 0x7C48, symBinAddr: 0x100007FB4, symSize: 0x10 }
  - { offsetInCU: 0x1AD76, offset: 0x1E7CE, size: 0x8, addend: 0x0, symName: __RINvNtCsl8K0bEFm1U0_4core3ptr13drop_in_placeINtNvXsy_NtNtNtCs1OjIl8oxbrv_5alloc11collections5btree3mapINtBP_8IntoIterpppENtNtNtB4_3ops4drop4Drop4drop9DropGuardyINtNtB4_6result6ResultINtNtBV_4sync3ArcNtNtNtCscUtGwbhD4WH_5gimli4read6abbrev13AbbreviationsENtB3f_5ErrorENtNtBV_5alloc6GlobalEECsg55jX0GwzBC_3std, symObjAddr: 0x7C58, symBinAddr: 0x100007FC4, symSize: 0x84 }
  - { offsetInCU: 0x1AEE4, offset: 0x1E93C, size: 0x8, addend: 0x0, symName: __RINvNtCsl8K0bEFm1U0_4core3ptr13drop_in_placeNCNvNtNtCsg55jX0GwzBC_3std3sys9backtrace10__print_fmt0EBO_, symObjAddr: 0x7CDC, symBinAddr: 0x100008048, symSize: 0x1C }
  - { offsetInCU: 0x1B003, offset: 0x1EA5B, size: 0x8, addend: 0x0, symName: __RINvNtCsl8K0bEFm1U0_4core3ptr13drop_in_placeNtNtCs1OjIl8oxbrv_5alloc6string6StringECsg55jX0GwzBC_3std, symObjAddr: 0x7D24, symBinAddr: 0x100008064, symSize: 0x18 }
  - { offsetInCU: 0x1B01A, offset: 0x1EA72, size: 0x8, addend: 0x0, symName: __RINvNtCsl8K0bEFm1U0_4core3ptr13drop_in_placeNtNtCs1OjIl8oxbrv_5alloc6string6StringECsg55jX0GwzBC_3std, symObjAddr: 0x7D24, symBinAddr: 0x100008064, symSize: 0x18 }
  - { offsetInCU: 0x1B0CF, offset: 0x1EB27, size: 0x8, addend: 0x0, symName: __RINvNtCsl8K0bEFm1U0_4core3ptr13drop_in_placeNtNtCsjiK8NK7psZe_6object4read9ObjectMapECsg55jX0GwzBC_3std, symObjAddr: 0x80C8, symBinAddr: 0x10000807C, symSize: 0x58 }
  - { offsetInCU: 0x1B253, offset: 0x1ECAB, size: 0x8, addend: 0x0, symName: __RINvNtCsl8K0bEFm1U0_4core3ptr13drop_in_placeNtNtNtCs1OjIl8oxbrv_5alloc3ffi5c_str8NulErrorECsg55jX0GwzBC_3std, symObjAddr: 0x8140, symBinAddr: 0x1000080D4, symSize: 0x18 }
  - { offsetInCU: 0x1B26A, offset: 0x1ECC2, size: 0x8, addend: 0x0, symName: __RINvNtCsl8K0bEFm1U0_4core3ptr13drop_in_placeNtNtNtCs1OjIl8oxbrv_5alloc3ffi5c_str8NulErrorECsg55jX0GwzBC_3std, symObjAddr: 0x8140, symBinAddr: 0x1000080D4, symSize: 0x18 }
  - { offsetInCU: 0x1B3A1, offset: 0x1EDF9, size: 0x8, addend: 0x0, symName: __RINvNtCsl8K0bEFm1U0_4core3ptr13drop_in_placeNtNtNtCscUtGwbhD4WH_5gimli4read6abbrev13AbbreviationsECsg55jX0GwzBC_3std, symObjAddr: 0x8158, symBinAddr: 0x1000080EC, symSize: 0x118 }
  - { offsetInCU: 0x1B79B, offset: 0x1F1F3, size: 0x8, addend: 0x0, symName: __RINvNtCsl8K0bEFm1U0_4core3ptr13drop_in_placeNtNtNtCscUtGwbhD4WH_5gimli4read6abbrev18AbbreviationsCacheECsg55jX0GwzBC_3std, symObjAddr: 0x8270, symBinAddr: 0x100008204, symSize: 0xCC }
  - { offsetInCU: 0x1B984, offset: 0x1F3DC, size: 0x8, addend: 0x0, symName: __RINvNtCsl8K0bEFm1U0_4core3ptr13drop_in_placeNtNtNtCsg55jX0GwzBC_3std2io5error5ErrorEBM_, symObjAddr: 0x833C, symBinAddr: 0x1000082D0, symSize: 0xB4 }
  - { offsetInCU: 0x1BC5C, offset: 0x1F6B4, size: 0x8, addend: 0x0, symName: __RINvNtCsl8K0bEFm1U0_4core3ptr13drop_in_placeNtNtNtNtCsg55jX0GwzBC_3std12backtrace_rs9backtrace9libunwind4BombEBO_, symObjAddr: 0x855C, symBinAddr: 0x100008384, symSize: 0x28 }
  - { offsetInCU: 0x1BCC5, offset: 0x1F71D, size: 0x8, addend: 0x0, symName: __RINvNtCsl8K0bEFm1U0_4core3ptr13drop_in_placeNtNtNtNtCsg55jX0GwzBC_3std12backtrace_rs9symbolize5gimli7ContextEBO_, symObjAddr: 0x8584, symBinAddr: 0x1000083AC, symSize: 0xE8 }
  - { offsetInCU: 0x1BFE4, offset: 0x1FA3C, size: 0x8, addend: 0x0, symName: __RINvNtCsl8K0bEFm1U0_4core3ptr13drop_in_placeNtNtNtNtNtCsg55jX0GwzBC_3std12backtrace_rs9symbolize5gimli5macho6ObjectEBQ_, symObjAddr: 0x8874, symBinAddr: 0x100008494, symSize: 0xD8 }
  - { offsetInCU: 0x1C3E7, offset: 0x1FE3F, size: 0x8, addend: 0x0, symName: __RINvNtCsl8K0bEFm1U0_4core3ptr13drop_in_placeNtNtNtNtNtCsg55jX0GwzBC_3std12backtrace_rs9symbolize5gimli5stash5StashEBQ_, symObjAddr: 0x894C, symBinAddr: 0x10000856C, symSize: 0xB8 }
  - { offsetInCU: 0x1C6FE, offset: 0x20156, size: 0x8, addend: 0x0, symName: __RINvNtCsl8K0bEFm1U0_4core3ptr13drop_in_placeNtNtNtNtNtCsg55jX0GwzBC_3std3sys4sync4once5queue11WaiterQueueEBQ_, symObjAddr: 0x8A08, symBinAddr: 0x100008624, symSize: 0xD4 }
  - { offsetInCU: 0x1C8CA, offset: 0x20322, size: 0x8, addend: 0x0, symName: __RINvNtCsl8K0bEFm1U0_4core3ptr13drop_in_placeNtNtNtNtNtNtCsg55jX0GwzBC_3std3sys3pal4unix4sync5mutex9AttrGuardEBS_, symObjAddr: 0x8B54, symBinAddr: 0x1000086F8, symSize: 0x44 }
  - { offsetInCU: 0x1C912, offset: 0x2036A, size: 0x8, addend: 0x0, symName: __RINvNtCsl8K0bEFm1U0_4core3ptr13drop_in_placeNtNvMs_NtNtNtCsg55jX0GwzBC_3std2io8buffered9bufwriterINtBN_9BufWriterpE9flush_buf8BufGuardEBT_, symObjAddr: 0x8C6C, symBinAddr: 0x10000873C, symSize: 0x5C }
  - { offsetInCU: 0x1CA88, offset: 0x204E0, size: 0x8, addend: 0x0, symName: __RINvNtCsl8K0bEFm1U0_4core3ptr13drop_in_placeNtNvXsf_NtNtCs1OjIl8oxbrv_5alloc5boxed7convertINtBQ_3BoxDNtNtB4_5error5ErrorNtNtB4_6marker4SyncNtB1W_4SendEL_EINtNtB4_7convert4FromNtNtBS_6string6StringE4from11StringErrorECsg55jX0GwzBC_3std, symObjAddr: 0x8D44, symBinAddr: 0x100008798, symSize: 0x18 }
  - { offsetInCU: 0x1CA9F, offset: 0x204F7, size: 0x8, addend: 0x0, symName: __RINvNtCsl8K0bEFm1U0_4core3ptr13drop_in_placeNtNvXsf_NtNtCs1OjIl8oxbrv_5alloc5boxed7convertINtBQ_3BoxDNtNtB4_5error5ErrorNtNtB4_6marker4SyncNtB1W_4SendEL_EINtNtB4_7convert4FromNtNtBS_6string6StringE4from11StringErrorECsg55jX0GwzBC_3std, symObjAddr: 0x8D44, symBinAddr: 0x100008798, symSize: 0x18 }
  - { offsetInCU: 0x1CAB4, offset: 0x2050C, size: 0x8, addend: 0x0, symName: __RINvNtCsl8K0bEFm1U0_4core3ptr13drop_in_placeNtNvXsf_NtNtCs1OjIl8oxbrv_5alloc5boxed7convertINtBQ_3BoxDNtNtB4_5error5ErrorNtNtB4_6marker4SyncNtB1W_4SendEL_EINtNtB4_7convert4FromNtNtBS_6string6StringE4from11StringErrorECsg55jX0GwzBC_3std, symObjAddr: 0x8D44, symBinAddr: 0x100008798, symSize: 0x18 }
  - { offsetInCU: 0x1CB6A, offset: 0x205C2, size: 0x8, addend: 0x0, symName: __RINvNtCsl8K0bEFm1U0_4core3ptr13drop_in_placeSINtNtB4_6option6OptionIBI_NtNtNtNtCsg55jX0GwzBC_3std12backtrace_rs9symbolize5gimli7MappingEEEB1f_, symObjAddr: 0x8D5C, symBinAddr: 0x1000087B0, symSize: 0xD0 }
  - { offsetInCU: 0x212EF, offset: 0x24D47, size: 0x8, addend: 0x0, symName: __RINvNtCsl8K0bEFm1U0_4core9panicking13assert_failedllECsg55jX0GwzBC_3std, symObjAddr: 0x8FFC, symBinAddr: 0x1000383A4, symSize: 0x28 }
  - { offsetInCU: 0x213F0, offset: 0x24E48, size: 0x8, addend: 0x0, symName: __RNvXs1i_NtCsl8K0bEFm1U0_4core3fmtRNtNtNtB8_5panic8location8LocationNtB6_7Display3fmtCsg55jX0GwzBC_3std, symObjAddr: 0x4110C, symBinAddr: 0x100024E38, symSize: 0x60 }
  - { offsetInCU: 0x21463, offset: 0x24EBB, size: 0x8, addend: 0x0, symName: __RNvXs1i_NtCsl8K0bEFm1U0_4core3fmtReNtB6_7Display3fmtCsg55jX0GwzBC_3std, symObjAddr: 0x4116C, symBinAddr: 0x100024E98, symSize: 0x10 }
  - { offsetInCU: 0x214A3, offset: 0x24EFB, size: 0x8, addend: 0x0, symName: __RNvXs1g_NtCsl8K0bEFm1U0_4core3fmtRINtNtCs1OjIl8oxbrv_5alloc3vec3VechENtB6_5Debug3fmtCsg55jX0GwzBC_3std, symObjAddr: 0x40708, symBinAddr: 0x100024D70, symSize: 0x70 }
  - { offsetInCU: 0x215BA, offset: 0x25012, size: 0x8, addend: 0x0, symName: __RNvXs1g_NtCsl8K0bEFm1U0_4core3fmtRINtNtCs1OjIl8oxbrv_5alloc5boxed3BoxDNtNtB8_5error5ErrorNtNtB8_6marker4SyncNtB1r_4SendEL_ENtB6_5Debug3fmtCsg55jX0GwzBC_3std, symObjAddr: 0x40778, symBinAddr: 0x100024DE0, symSize: 0x10 }
  - { offsetInCU: 0x215F7, offset: 0x2504F, size: 0x8, addend: 0x0, symName: __RNvXs1g_NtCsl8K0bEFm1U0_4core3fmtReNtB6_5Debug3fmtCsg55jX0GwzBC_3std, symObjAddr: 0x41094, symBinAddr: 0x100024DF0, symSize: 0x10 }
  - { offsetInCU: 0x2160A, offset: 0x25062, size: 0x8, addend: 0x0, symName: __RNvXs1g_NtCsl8K0bEFm1U0_4core3fmtRhNtB6_5Debug3fmtCsg55jX0GwzBC_3std, symObjAddr: 0x410A4, symBinAddr: 0x100024E00, symSize: 0x1C }
  - { offsetInCU: 0x21650, offset: 0x250A8, size: 0x8, addend: 0x0, symName: __RNvXs1g_NtCsl8K0bEFm1U0_4core3fmtRlNtB6_5Debug3fmtCsg55jX0GwzBC_3std, symObjAddr: 0x410C0, symBinAddr: 0x100024E1C, symSize: 0x1C }
  - { offsetInCU: 0x216CE, offset: 0x25126, size: 0x8, addend: 0x0, symName: __RNvXsQ_NtNtCsl8K0bEFm1U0_4core3fmt3numlNtB7_5Debug3fmt, symObjAddr: 0x468E0, symBinAddr: 0x100025AF8, symSize: 0x18 }
  - { offsetInCU: 0x216E5, offset: 0x2513D, size: 0x8, addend: 0x0, symName: __RNvXsQ_NtNtCsl8K0bEFm1U0_4core3fmt3numlNtB7_5Debug3fmt, symObjAddr: 0x468E0, symBinAddr: 0x100025AF8, symSize: 0x18 }
  - { offsetInCU: 0x216FD, offset: 0x25155, size: 0x8, addend: 0x0, symName: __RNvXsZ_NtNtCsl8K0bEFm1U0_4core3fmt3numjNtB7_5Debug3fmt, symObjAddr: 0x46EE0, symBinAddr: 0x100025CFC, symSize: 0x18 }
  - { offsetInCU: 0x21714, offset: 0x2516C, size: 0x8, addend: 0x0, symName: __RNvXsZ_NtNtCsl8K0bEFm1U0_4core3fmt3numjNtB7_5Debug3fmt, symObjAddr: 0x46EE0, symBinAddr: 0x100025CFC, symSize: 0x18 }
  - { offsetInCU: 0x2173A, offset: 0x25192, size: 0x8, addend: 0x0, symName: __RNvXs1j_NtCsl8K0bEFm1U0_4core3fmtQDNtNtB8_5panic12PanicPayloadEL_NtB6_7Display3fmtCsg55jX0GwzBC_3std, symObjAddr: 0x4117C, symBinAddr: 0x100024EA8, symSize: 0x10 }
  - { offsetInCU: 0x21780, offset: 0x251D8, size: 0x8, addend: 0x0, symName: __RNvXsq_NtCsl8K0bEFm1U0_4core3fmtONtNtB7_3ffi6c_voidNtB5_5Debug3fmtCsg55jX0GwzBC_3std, symObjAddr: 0x4C180, symBinAddr: 0x100026A34, symSize: 0x8 }
  - { offsetInCU: 0x2179E, offset: 0x251F6, size: 0x8, addend: 0x0, symName: __RNvXsq_NtCsl8K0bEFm1U0_4core3fmtONtNtB7_3ffi6c_voidNtB5_5Debug3fmtCsg55jX0GwzBC_3std, symObjAddr: 0x4C180, symBinAddr: 0x100026A34, symSize: 0x8 }
  - { offsetInCU: 0x217CC, offset: 0x25224, size: 0x8, addend: 0x0, symName: __RNvYINtNvNtCsg55jX0GwzBC_3std2io17default_write_fmt7AdapterINtNtB7_6cursor6CursorQShEENtNtCsl8K0bEFm1U0_4core3fmt5Write10write_charB9_, symObjAddr: 0x4D830, symBinAddr: 0x1000276E4, symSize: 0x138 }
  - { offsetInCU: 0x2199C, offset: 0x253F4, size: 0x8, addend: 0x0, symName: __RNvYINtNvNtCsg55jX0GwzBC_3std2io17default_write_fmt7AdapterINtNtB7_6cursor6CursorQShEENtNtCsl8K0bEFm1U0_4core3fmt5Write9write_fmtB9_, symObjAddr: 0x4D968, symBinAddr: 0x10002781C, symSize: 0x14 }
  - { offsetInCU: 0x219CA, offset: 0x25422, size: 0x8, addend: 0x0, symName: __RNvYINtNvNtCsg55jX0GwzBC_3std2io17default_write_fmt7AdapterINtNtCs1OjIl8oxbrv_5alloc3vec3VechEENtNtCsl8K0bEFm1U0_4core3fmt5Write10write_charB9_, symObjAddr: 0x4D97C, symBinAddr: 0x100027830, symSize: 0x110 }
  - { offsetInCU: 0x21B7D, offset: 0x255D5, size: 0x8, addend: 0x0, symName: __RNvYINtNvNtCsg55jX0GwzBC_3std2io17default_write_fmt7AdapterINtNtCs1OjIl8oxbrv_5alloc3vec3VechEENtNtCsl8K0bEFm1U0_4core3fmt5Write9write_fmtB9_, symObjAddr: 0x4DA8C, symBinAddr: 0x100027940, symSize: 0x14 }
  - { offsetInCU: 0x21BAB, offset: 0x25603, size: 0x8, addend: 0x0, symName: __RNvYINtNvNtCsg55jX0GwzBC_3std2io17default_write_fmt7AdapterNtNtB7_5stdio10StdoutLockENtNtCsl8K0bEFm1U0_4core3fmt5Write10write_charB9_, symObjAddr: 0x4DBE4, symBinAddr: 0x100027954, symSize: 0x128 }
  - { offsetInCU: 0x21C24, offset: 0x2567C, size: 0x8, addend: 0x0, symName: __RNvYINtNvNtCsg55jX0GwzBC_3std2io17default_write_fmt7AdapterNtNtB7_5stdio10StdoutLockENtNtCsl8K0bEFm1U0_4core3fmt5Write9write_fmtB9_, symObjAddr: 0x4DD0C, symBinAddr: 0x100027A7C, symSize: 0x14 }
  - { offsetInCU: 0x21C52, offset: 0x256AA, size: 0x8, addend: 0x0, symName: __RNvYINtNvNtCsg55jX0GwzBC_3std2io17default_write_fmt7AdapterNtNtNtNtB9_3sys5stdio4unix6StderrENtNtCsl8K0bEFm1U0_4core3fmt5Write10write_charB9_, symObjAddr: 0x4DD20, symBinAddr: 0x100027A90, symSize: 0xB0 }
  - { offsetInCU: 0x21CC1, offset: 0x25719, size: 0x8, addend: 0x0, symName: __RNvYINtNvNtCsg55jX0GwzBC_3std2io17default_write_fmt7AdapterNtNtNtNtB9_3sys5stdio4unix6StderrENtNtCsl8K0bEFm1U0_4core3fmt5Write9write_fmtB9_, symObjAddr: 0x4DDD0, symBinAddr: 0x100027B40, symSize: 0x14 }
  - { offsetInCU: 0x21CEF, offset: 0x25747, size: 0x8, addend: 0x0, symName: __RNvYNtNtCs1OjIl8oxbrv_5alloc6string6StringNtNtCsl8K0bEFm1U0_4core3fmt5Write9write_fmtCsg55jX0GwzBC_3std, symObjAddr: 0x4DEB0, symBinAddr: 0x100027B5C, symSize: 0x14 }
  - { offsetInCU: 0x21D68, offset: 0x257C0, size: 0x8, addend: 0x0, symName: __RNCNvNtNtCsl8K0bEFm1U0_4core3str7pattern13simd_containss0_0Csg55jX0GwzBC_3std, symObjAddr: 0x1540C, symBinAddr: 0x10003863C, symSize: 0x100 }
  - { offsetInCU: 0x21F7E, offset: 0x259D6, size: 0x8, addend: 0x0, symName: __RNvXst_NtNtCsl8K0bEFm1U0_4core3str7patternReNtB5_7Pattern15is_contained_in, symObjAddr: 0x4C660, symBinAddr: 0x100026A4C, symSize: 0x760 }
  - { offsetInCU: 0x227AA, offset: 0x26202, size: 0x8, addend: 0x0, symName: __RNvYINtNvNtCsg55jX0GwzBC_3std9panicking11begin_panic7PayloadReENtNtCsl8K0bEFm1U0_4core5panic12PanicPayload6as_strB9_, symObjAddr: 0x4DEA8, symBinAddr: 0x100027B54, symSize: 0x8 }
  - { offsetInCU: 0x22861, offset: 0x262B9, size: 0x8, addend: 0x0, symName: __RNvXNtCsl8K0bEFm1U0_4core3anyNtNtCs1OjIl8oxbrv_5alloc6string6StringNtB2_3Any7type_idCsg55jX0GwzBC_3std, symObjAddr: 0x3D0BC, symBinAddr: 0x1000244A0, symSize: 0x14 }
  - { offsetInCU: 0x2287F, offset: 0x262D7, size: 0x8, addend: 0x0, symName: __RNvXNtCsl8K0bEFm1U0_4core3anyNtNtCs1OjIl8oxbrv_5alloc6string6StringNtB2_3Any7type_idCsg55jX0GwzBC_3std, symObjAddr: 0x3D0BC, symBinAddr: 0x1000244A0, symSize: 0x14 }
  - { offsetInCU: 0x22891, offset: 0x262E9, size: 0x8, addend: 0x0, symName: __RNvXNtCsl8K0bEFm1U0_4core3anyReNtB2_3Any7type_idCsg55jX0GwzBC_3std, symObjAddr: 0x3D0D0, symBinAddr: 0x1000244B4, symSize: 0x14 }
  - { offsetInCU: 0x228AF, offset: 0x26307, size: 0x8, addend: 0x0, symName: __RNvXNtCsl8K0bEFm1U0_4core3anyReNtB2_3Any7type_idCsg55jX0GwzBC_3std, symObjAddr: 0x3D0D0, symBinAddr: 0x1000244B4, symSize: 0x14 }
  - { offsetInCU: 0x2292B, offset: 0x26383, size: 0x8, addend: 0x0, symName: __RNvYNtNvXsf_NtNtCs1OjIl8oxbrv_5alloc5boxed7convertINtBc_3BoxDNtNtCsl8K0bEFm1U0_4core5error5ErrorNtNtB11_6marker4SyncNtB1y_4SendEL_EINtNtB11_7convert4FromNtNtBe_6string6StringE4from11StringErrorBX_11descriptionCsg55jX0GwzBC_3std, symObjAddr: 0x4E224, symBinAddr: 0x100027EA0, symSize: 0x10 }
  - { offsetInCU: 0x22945, offset: 0x2639D, size: 0x8, addend: 0x0, symName: __RNvYNtNvXsf_NtNtCs1OjIl8oxbrv_5alloc5boxed7convertINtBc_3BoxDNtNtCsl8K0bEFm1U0_4core5error5ErrorNtNtB11_6marker4SyncNtB1y_4SendEL_EINtNtB11_7convert4FromNtNtBe_6string6StringE4from11StringErrorBX_5causeCsg55jX0GwzBC_3std, symObjAddr: 0x4E234, symBinAddr: 0x100027EB0, symSize: 0x8 }
  - { offsetInCU: 0x2295F, offset: 0x263B7, size: 0x8, addend: 0x0, symName: __RNvYNtNvXsf_NtNtCs1OjIl8oxbrv_5alloc5boxed7convertINtBc_3BoxDNtNtCsl8K0bEFm1U0_4core5error5ErrorNtNtB11_6marker4SyncNtB1y_4SendEL_EINtNtB11_7convert4FromNtNtBe_6string6StringE4from11StringErrorBX_7provideCsg55jX0GwzBC_3std, symObjAddr: 0x4E23C, symBinAddr: 0x100027EB8, symSize: 0x4 }
  - { offsetInCU: 0x2297A, offset: 0x263D2, size: 0x8, addend: 0x0, symName: __RNvYNtNvXsf_NtNtCs1OjIl8oxbrv_5alloc5boxed7convertINtBc_3BoxDNtNtCsl8K0bEFm1U0_4core5error5ErrorNtNtB11_6marker4SyncNtB1y_4SendEL_EINtNtB11_7convert4FromNtNtBe_6string6StringE4from11StringErrorBX_7type_idCsg55jX0GwzBC_3std, symObjAddr: 0x4E240, symBinAddr: 0x100027EBC, symSize: 0x14 }
  - { offsetInCU: 0x22998, offset: 0x263F0, size: 0x8, addend: 0x0, symName: __RNvYNtNvXsf_NtNtCs1OjIl8oxbrv_5alloc5boxed7convertINtBc_3BoxDNtNtCsl8K0bEFm1U0_4core5error5ErrorNtNtB11_6marker4SyncNtB1y_4SendEL_EINtNtB11_7convert4FromNtNtBe_6string6StringE4from11StringErrorBX_7type_idCsg55jX0GwzBC_3std, symObjAddr: 0x4E240, symBinAddr: 0x100027EBC, symSize: 0x14 }
  - { offsetInCU: 0x229EF, offset: 0x26447, size: 0x8, addend: 0x0, symName: __RNvMNtNtNtNtCsg55jX0GwzBC_3std3sys4sync4once5queueNtB2_4Once4call, symObjAddr: 0x18D0C, symBinAddr: 0x10003879C, symSize: 0x1F4 }
  - { offsetInCU: 0x22CCE, offset: 0x26726, size: 0x8, addend: 0x0, symName: __RNvNtNtNtNtCsg55jX0GwzBC_3std3sys4sync4once5queue4wait, symObjAddr: 0x3A26C, symBinAddr: 0x100022D3C, symSize: 0x184 }
  - { offsetInCU: 0x232BC, offset: 0x26D14, size: 0x8, addend: 0x0, symName: __RINvMNtNtNtCsg55jX0GwzBC_3std3sys4sync8once_boxINtB3_7OnceBoxNtNtNtNtNtB7_3pal4unix4sync5mutex5MutexE10initializeNCNvMNtNtB5_5mutex7pthreadNtB1S_5Mutex3get0EB9_, symObjAddr: 0x2D64, symBinAddr: 0x100038290, symSize: 0xE4 }
  - { offsetInCU: 0x234F8, offset: 0x26F50, size: 0x8, addend: 0x0, symName: __RNvMs1_NtNtNtNtCsg55jX0GwzBC_3std3sys4sync6rwlock5queueNtB5_6RwLock12unlock_queue, symObjAddr: 0x1E934, symBinAddr: 0x100015860, symSize: 0x1B4 }
  - { offsetInCU: 0x23B52, offset: 0x275AA, size: 0x8, addend: 0x0, symName: __RNvMs1_NtNtNtNtCsg55jX0GwzBC_3std3sys4sync6rwlock5queueNtB5_6RwLock16unlock_contended, symObjAddr: 0x1EDE0, symBinAddr: 0x100038990, symSize: 0x40 }
  - { offsetInCU: 0x23C18, offset: 0x27670, size: 0x8, addend: 0x0, symName: __RNvMs1_NtNtNtNtCsg55jX0GwzBC_3std3sys4sync6rwlock5queueNtB5_6RwLock21read_unlock_contended, symObjAddr: 0x1EE20, symBinAddr: 0x1000389D0, symSize: 0x40 }
  - { offsetInCU: 0x23C36, offset: 0x2768E, size: 0x8, addend: 0x0, symName: __RNvMs1_NtNtNtNtCsg55jX0GwzBC_3std3sys4sync6rwlock5queueNtB5_6RwLock21read_unlock_contended, symObjAddr: 0x1EE20, symBinAddr: 0x1000389D0, symSize: 0x40 }
  - { offsetInCU: 0x23C4B, offset: 0x276A3, size: 0x8, addend: 0x0, symName: __RNvMs1_NtNtNtNtCsg55jX0GwzBC_3std3sys4sync6rwlock5queueNtB5_6RwLock21read_unlock_contended, symObjAddr: 0x1EE20, symBinAddr: 0x1000389D0, symSize: 0x40 }
  - { offsetInCU: 0x23E8B, offset: 0x278E3, size: 0x8, addend: 0x0, symName: __RNvXs0_NtNtNtNtCsg55jX0GwzBC_3std3sys4sync6rwlock5queueNtB5_10PanicGuardNtNtNtCsl8K0bEFm1U0_4core3ops4drop4Drop4drop, symObjAddr: 0x3F79C, symBinAddr: 0x100039310, symSize: 0x30 }
  - { offsetInCU: 0x23F60, offset: 0x279B8, size: 0x8, addend: 0x0, symName: __RINvNtNtNtNtCsg55jX0GwzBC_3std3sys12thread_local6native5eager7destroyINtNtCsl8K0bEFm1U0_4core4cell4CellINtNtB1a_6option6OptionINtNtCs1OjIl8oxbrv_5alloc4sync3ArcINtNtNtNtBa_4sync6poison5mutex5MutexINtNtB25_3vec3VechEEEEEEBa_, symObjAddr: 0xBF3C, symBinAddr: 0x10000B1A4, symSize: 0x2C }
  - { offsetInCU: 0x240D8, offset: 0x27B30, size: 0x8, addend: 0x0, symName: __RNvNvNtNtNtNtCsg55jX0GwzBC_3std3sys12thread_local5guard5apple6enable9run_dtors, symObjAddr: 0x3CB60, symBinAddr: 0x1000243B0, symSize: 0xF0 }
  - { offsetInCU: 0x24571, offset: 0x27FC9, size: 0x8, addend: 0x0, symName: __RNvNtNtNtNtCsg55jX0GwzBC_3std3sys12thread_local11destructors4list8register, symObjAddr: 0x39B90, symBinAddr: 0x100022AF0, symSize: 0xFC }
  - { offsetInCU: 0x2486E, offset: 0x282C6, size: 0x8, addend: 0x0, symName: __RNvMNtNtNtNtNtCsg55jX0GwzBC_3std3sys3pal4unix4sync5mutexNtB2_5Mutex4init, symObjAddr: 0x1A2E4, symBinAddr: 0x100013CC0, symSize: 0x168 }
  - { offsetInCU: 0x24931, offset: 0x28389, size: 0x8, addend: 0x0, symName: __RNvNvMNtNtNtNtNtCsg55jX0GwzBC_3std3sys3pal4unix4sync5mutexNtB4_5Mutex4lock4fail, symObjAddr: 0x3BB9C, symBinAddr: 0x1000392B0, symSize: 0x60 }
  - { offsetInCU: 0x249E6, offset: 0x2843E, size: 0x8, addend: 0x0, symName: __RNvNtNtNtNtNtCsg55jX0GwzBC_3std3sys3pal4unix14stack_overflow3imp12drop_handler, symObjAddr: 0x3B3B4, symBinAddr: 0x100023BA0, symSize: 0x3A0 }
  - { offsetInCU: 0x25279, offset: 0x28CD1, size: 0x8, addend: 0x0, symName: __RNvNtNtNtNtNtCsg55jX0GwzBC_3std3sys3pal4unix14stack_overflow3imp12make_handler, symObjAddr: 0x3B754, symBinAddr: 0x100023F40, symSize: 0x194 }
  - { offsetInCU: 0x254CC, offset: 0x28F24, size: 0x8, addend: 0x0, symName: __RNvNtNtNtNtNtCsg55jX0GwzBC_3std3sys3pal4unix14stack_overflow3imp14signal_handler, symObjAddr: 0x3B8E8, symBinAddr: 0x1000240D4, symSize: 0x294 }
  - { offsetInCU: 0x2598A, offset: 0x293E2, size: 0x8, addend: 0x0, symName: __RNvNtNtNtNtNtCsg55jX0GwzBC_3std3sys3pal4unix14stack_overflow11thread_info16set_current_info, symObjAddr: 0x3A6D4, symBinAddr: 0x100022EC0, symSize: 0xCE0 }
  - { offsetInCU: 0x27B58, offset: 0x2B5B0, size: 0x8, addend: 0x0, symName: __RNvNtNtNtCsg55jX0GwzBC_3std3sys3pal4unix14abort_internal, symObjAddr: 0x3927C, symBinAddr: 0x100039284, symSize: 0xC }
  - { offsetInCU: 0x27C91, offset: 0x2B6E9, size: 0x8, addend: 0x0, symName: __RNvXs3_NtNtNtCsg55jX0GwzBC_3std3sys5stdio4unixNtB5_6StderrNtNtBb_2io5Write14write_vectored, symObjAddr: 0x42A04, symBinAddr: 0x100024FCC, symSize: 0x54 }
  - { offsetInCU: 0x27D64, offset: 0x2B7BC, size: 0x8, addend: 0x0, symName: __RNvXs3_NtNtNtCsg55jX0GwzBC_3std3sys5stdio4unixNtB5_6StderrNtNtBb_2io5Write17is_write_vectored, symObjAddr: 0x42A58, symBinAddr: 0x100025020, symSize: 0x8 }
  - { offsetInCU: 0x27D7D, offset: 0x2B7D5, size: 0x8, addend: 0x0, symName: __RNvXs3_NtNtNtCsg55jX0GwzBC_3std3sys5stdio4unixNtB5_6StderrNtNtBb_2io5Write5flush, symObjAddr: 0x42A60, symBinAddr: 0x100025028, symSize: 0x8 }
  - { offsetInCU: 0x27D96, offset: 0x2B7EE, size: 0x8, addend: 0x0, symName: __RNvXs3_NtNtNtCsg55jX0GwzBC_3std3sys5stdio4unixNtB5_6StderrNtNtBb_2io5Write5write, symObjAddr: 0x42A68, symBinAddr: 0x100025030, symSize: 0x54 }
  - { offsetInCU: 0x27EB1, offset: 0x2B909, size: 0x8, addend: 0x0, symName: __RNvNtNtNtNtCsg55jX0GwzBC_3std3sys2io5error4unix17decode_error_kind, symObjAddr: 0x3A040, symBinAddr: 0x100022BEC, symSize: 0x150 }
  - { offsetInCU: 0x27F2B, offset: 0x2B983, size: 0x8, addend: 0x0, symName: __RNvMsi_NtNtNtCsg55jX0GwzBC_3std3sys2fs4unixNtB5_4File6open_c, symObjAddr: 0x2D8C0, symBinAddr: 0x10001DDC4, symSize: 0x1E4 }
  - { offsetInCU: 0x2805E, offset: 0x2BAB6, size: 0x8, addend: 0x0, symName: __RNCNvMsi_NtNtNtCsg55jX0GwzBC_3std3sys2fs4unixNtB7_4File4open0Bd_, symObjAddr: 0x14B10, symBinAddr: 0x100012CC8, symSize: 0xC }
  - { offsetInCU: 0x28105, offset: 0x2BB5D, size: 0x8, addend: 0x0, symName: __RNvXsc_NtNtNtCsg55jX0GwzBC_3std3sys2fs4unixNtB5_9DirStreamNtNtNtCsl8K0bEFm1U0_4core3ops4drop4Drop4drop, symObjAddr: 0x496EC, symBinAddr: 0x100025FC0, symSize: 0xB4 }
  - { offsetInCU: 0x281B9, offset: 0x2BC11, size: 0x8, addend: 0x0, symName: __RNvNtNtCsg55jX0GwzBC_3std3sys2fs8read_dir, symObjAddr: 0x33BCC, symBinAddr: 0x10001FB0C, symSize: 0x180 }
  - { offsetInCU: 0x28498, offset: 0x2BEF0, size: 0x8, addend: 0x0, symName: __RINvNtNtCsg55jX0GwzBC_3std3sys9backtrace26___rust_end_short_backtraceNCNvNtB6_5alloc8rust_oom0zEB6_, symObjAddr: 0xAF90, symBinAddr: 0x1000383CC, symSize: 0xC }
  - { offsetInCU: 0x284B1, offset: 0x2BF09, size: 0x8, addend: 0x0, symName: __RINvNtNtCsg55jX0GwzBC_3std3sys9backtrace26___rust_end_short_backtraceNCNvNtB6_9panicking13panic_handler0zEB6_, symObjAddr: 0xAF9C, symBinAddr: 0x10000A7E0, symSize: 0xC }
  - { offsetInCU: 0x284F2, offset: 0x2BF4A, size: 0x8, addend: 0x0, symName: __RNCNCNvNtNtCsg55jX0GwzBC_3std3sys9backtrace10__print_fmts_00B9_, symObjAddr: 0x13DD4, symBinAddr: 0x10001275C, symSize: 0x244 }
  - { offsetInCU: 0x28708, offset: 0x2C160, size: 0x8, addend: 0x0, symName: __RNCNvNtNtCsg55jX0GwzBC_3std3sys9backtrace10__print_fmt0B7_, symObjAddr: 0x152B4, symBinAddr: 0x100012EA0, symSize: 0x24 }
  - { offsetInCU: 0x28730, offset: 0x2C188, size: 0x8, addend: 0x0, symName: __RNCNvNtNtCsg55jX0GwzBC_3std3sys9backtrace10__print_fmts_0B7_, symObjAddr: 0x152D8, symBinAddr: 0x100012EC4, symSize: 0x134 }
  - { offsetInCU: 0x28822, offset: 0x2C27A, size: 0x8, addend: 0x0, symName: __RNvNtNtCsg55jX0GwzBC_3std3sys9backtrace15output_filename, symObjAddr: 0x341F8, symBinAddr: 0x10001FC8C, symSize: 0xEC }
  - { offsetInCU: 0x28979, offset: 0x2C3D1, size: 0x8, addend: 0x0, symName: __RNvNtNtCsg55jX0GwzBC_3std3sys9backtrace4lock, symObjAddr: 0x342E4, symBinAddr: 0x10001FD78, symSize: 0x70 }
  - { offsetInCU: 0x28AD5, offset: 0x2C52D, size: 0x8, addend: 0x0, symName: __RNvXNvMNtNtCsg55jX0GwzBC_3std3sys9backtraceNtB5_13BacktraceLock5printNtB2_16DisplayBacktraceNtNtCsl8K0bEFm1U0_4core3fmt7Display3fmt, symObjAddr: 0x3E330, symBinAddr: 0x1000245F4, symSize: 0x19C }
  - { offsetInCU: 0x28E5D, offset: 0x2C8B5, size: 0x8, addend: 0x0, symName: __RINvNtNtNtCsg55jX0GwzBC_3std3sys7helpers14small_c_string24run_with_cstr_allocatingNtNtNtB6_2fs4unix4FileEB8_, symObjAddr: 0xB118, symBinAddr: 0x1000383D8, symSize: 0xD0 }
  - { offsetInCU: 0x2907B, offset: 0x2CAD3, size: 0x8, addend: 0x0, symName: __RINvNtNtNtCsg55jX0GwzBC_3std3sys7helpers14small_c_string24run_with_cstr_allocatingONtNtCs2PDYBX0j4WU_4libc4unix3DIREB8_, symObjAddr: 0xB424, symBinAddr: 0x1000384A8, symSize: 0xA4 }
  - { offsetInCU: 0x29298, offset: 0x2CCF0, size: 0x8, addend: 0x0, symName: __RNCNvNtNtNtCsg55jX0GwzBC_3std3sys3env4unix6getenv0B9_, symObjAddr: 0x1577C, symBinAddr: 0x100013010, symSize: 0x130 }
  - { offsetInCU: 0x2947B, offset: 0x2CED3, size: 0x8, addend: 0x0, symName: __RNvNtNtNtCsg55jX0GwzBC_3std3sys3env4unix13env_read_lock, symObjAddr: 0x38E70, symBinAddr: 0x10002259C, symSize: 0x230 }
  - { offsetInCU: 0x29B50, offset: 0x2D5A8, size: 0x8, addend: 0x0, symName: __RNCNvNtNtNtCsg55jX0GwzBC_3std3sys11personality3gcc14find_eh_action0B9_, symObjAddr: 0x1550C, symBinAddr: 0x100012FF8, symSize: 0xC }
  - { offsetInCU: 0x29B63, offset: 0x2D5BB, size: 0x8, addend: 0x0, symName: __RNCNvNtNtNtCsg55jX0GwzBC_3std3sys11personality3gcc14find_eh_actions_0B9_, symObjAddr: 0x15518, symBinAddr: 0x100013004, symSize: 0xC }
  - { offsetInCU: 0x29BAA, offset: 0x2D602, size: 0x8, addend: 0x0, symName: _rust_eh_personality, symObjAddr: 0x4E5EC, symBinAddr: 0x100027ED0, symSize: 0x378 }
  - { offsetInCU: 0x29FE2, offset: 0x2DA3A, size: 0x8, addend: 0x0, symName: __RNvNtNtNtNtCsg55jX0GwzBC_3std3sys11personality5dwarf2eh19read_encoded_offset, symObjAddr: 0x39A48, symBinAddr: 0x1000229A8, symSize: 0x148 }
  - { offsetInCU: 0x2A2BD, offset: 0x2DD15, size: 0x8, addend: 0x0, symName: __RNCINvMs0_NtNtCsg55jX0GwzBC_3std4sync4onceNtB8_4Once15call_once_forceNCINvMNtBa_9once_lockINtB1b_8OnceLockINtNtBa_14reentrant_lock13ReentrantLockINtNtCsl8K0bEFm1U0_4core4cell7RefCellINtNtNtNtBc_2io8buffered10linewriter10LineWriterNtNtB31_5stdio9StdoutRawEEEE10initializeNCINvB1a_11get_or_initNCNvB3I_6stdout0E0zE0E0Bc_, symObjAddr: 0x13488, symBinAddr: 0x100012128, symSize: 0x70 }
  - { offsetInCU: 0x2A40F, offset: 0x2DE67, size: 0x8, addend: 0x0, symName: __RNCINvMs0_NtNtCsg55jX0GwzBC_3std4sync4onceNtB8_4Once15call_once_forceNCINvMNtBa_9once_lockINtB1b_8OnceLockINtNtBa_14reentrant_lock13ReentrantLockINtNtCsl8K0bEFm1U0_4core4cell7RefCellINtNtNtNtBc_2io8buffered10linewriter10LineWriterNtNtB31_5stdio9StdoutRawEEEE10initializeNCINvB1a_11get_or_initNCNvB3I_7cleanup0E0zE0E0Bc_, symObjAddr: 0x134F8, symBinAddr: 0x100012198, symSize: 0x60 }
  - { offsetInCU: 0x2A4E2, offset: 0x2DF3A, size: 0x8, addend: 0x0, symName: __RNCINvMs0_NtNtCsg55jX0GwzBC_3std4sync4onceNtB8_4Once9call_onceNCNvNtBc_2rt7cleanup0E0Bc_, symObjAddr: 0x13758, symBinAddr: 0x1000121F8, symSize: 0x27C }
  - { offsetInCU: 0x2AD8C, offset: 0x2E7E4, size: 0x8, addend: 0x0, symName: __RINvMNtNtCsg55jX0GwzBC_3std4sync9once_lockINtB3_8OnceLockINtNtB5_14reentrant_lock13ReentrantLockINtNtCsl8K0bEFm1U0_4core4cell7RefCellINtNtNtNtB7_2io8buffered10linewriter10LineWriterNtNtB2e_5stdio9StdoutRawEEEE10initializeNCINvB2_11get_or_initNCNvB2V_6stdout0E0zEB7_, symObjAddr: 0x0, symBinAddr: 0x100035584, symSize: 0x60 }
  - { offsetInCU: 0x2ADB7, offset: 0x2E80F, size: 0x8, addend: 0x0, symName: __RINvMNtNtCsg55jX0GwzBC_3std4sync9once_lockINtB3_8OnceLockINtNtB5_14reentrant_lock13ReentrantLockINtNtCsl8K0bEFm1U0_4core4cell7RefCellINtNtNtNtB7_2io8buffered10linewriter10LineWriterNtNtB2e_5stdio9StdoutRawEEEE10initializeNCINvB2_11get_or_initNCNvB2V_6stdout0E0zEB7_, symObjAddr: 0x0, symBinAddr: 0x100035584, symSize: 0x60 }
  - { offsetInCU: 0x2ADCB, offset: 0x2E823, size: 0x8, addend: 0x0, symName: __RINvMNtNtCsg55jX0GwzBC_3std4sync9once_lockINtB3_8OnceLockINtNtB5_14reentrant_lock13ReentrantLockINtNtCsl8K0bEFm1U0_4core4cell7RefCellINtNtNtNtB7_2io8buffered10linewriter10LineWriterNtNtB2e_5stdio9StdoutRawEEEE10initializeNCINvB2_11get_or_initNCNvB2V_6stdout0E0zEB7_, symObjAddr: 0x0, symBinAddr: 0x100035584, symSize: 0x60 }
  - { offsetInCU: 0x2ADDF, offset: 0x2E837, size: 0x8, addend: 0x0, symName: __RINvMNtNtCsg55jX0GwzBC_3std4sync9once_lockINtB3_8OnceLockINtNtB5_14reentrant_lock13ReentrantLockINtNtCsl8K0bEFm1U0_4core4cell7RefCellINtNtNtNtB7_2io8buffered10linewriter10LineWriterNtNtB2e_5stdio9StdoutRawEEEE10initializeNCINvB2_11get_or_initNCNvB2V_6stdout0E0zEB7_, symObjAddr: 0x0, symBinAddr: 0x100035584, symSize: 0x60 }
  - { offsetInCU: 0x2ADF4, offset: 0x2E84C, size: 0x8, addend: 0x0, symName: __RINvMNtNtCsg55jX0GwzBC_3std4sync9once_lockINtB3_8OnceLockINtNtB5_14reentrant_lock13ReentrantLockINtNtCsl8K0bEFm1U0_4core4cell7RefCellINtNtNtNtB7_2io8buffered10linewriter10LineWriterNtNtB2e_5stdio9StdoutRawEEEE10initializeNCINvB2_11get_or_initNCNvB2V_7cleanup0E0zEB7_, symObjAddr: 0x60, symBinAddr: 0x1000355E4, symSize: 0x64 }
  - { offsetInCU: 0x2AE1F, offset: 0x2E877, size: 0x8, addend: 0x0, symName: __RINvMNtNtCsg55jX0GwzBC_3std4sync9once_lockINtB3_8OnceLockINtNtB5_14reentrant_lock13ReentrantLockINtNtCsl8K0bEFm1U0_4core4cell7RefCellINtNtNtNtB7_2io8buffered10linewriter10LineWriterNtNtB2e_5stdio9StdoutRawEEEE10initializeNCINvB2_11get_or_initNCNvB2V_7cleanup0E0zEB7_, symObjAddr: 0x60, symBinAddr: 0x1000355E4, symSize: 0x64 }
  - { offsetInCU: 0x2AE33, offset: 0x2E88B, size: 0x8, addend: 0x0, symName: __RINvMNtNtCsg55jX0GwzBC_3std4sync9once_lockINtB3_8OnceLockINtNtB5_14reentrant_lock13ReentrantLockINtNtCsl8K0bEFm1U0_4core4cell7RefCellINtNtNtNtB7_2io8buffered10linewriter10LineWriterNtNtB2e_5stdio9StdoutRawEEEE10initializeNCINvB2_11get_or_initNCNvB2V_7cleanup0E0zEB7_, symObjAddr: 0x60, symBinAddr: 0x1000355E4, symSize: 0x64 }
  - { offsetInCU: 0x2AE47, offset: 0x2E89F, size: 0x8, addend: 0x0, symName: __RINvMNtNtCsg55jX0GwzBC_3std4sync9once_lockINtB3_8OnceLockINtNtB5_14reentrant_lock13ReentrantLockINtNtCsl8K0bEFm1U0_4core4cell7RefCellINtNtNtNtB7_2io8buffered10linewriter10LineWriterNtNtB2e_5stdio9StdoutRawEEEE10initializeNCINvB2_11get_or_initNCNvB2V_7cleanup0E0zEB7_, symObjAddr: 0x60, symBinAddr: 0x1000355E4, symSize: 0x64 }
  - { offsetInCU: 0x2AF7B, offset: 0x2E9D3, size: 0x8, addend: 0x0, symName: __RNvMs5_NtNtNtCsg55jX0GwzBC_3std4sync6poison5mutexINtB5_5MutexINtNtCs1OjIl8oxbrv_5alloc3vec3VechEE4lockBb_, symObjAddr: 0x22628, symBinAddr: 0x100017CA4, symSize: 0x78 }
  - { offsetInCU: 0x2B352, offset: 0x2EDAA, size: 0x8, addend: 0x0, symName: __RNCINvNtNtCsg55jX0GwzBC_3std6thread7current17with_current_nameNCNCNvNtB8_9panicking12default_hook00uE0B8_, symObjAddr: 0x13A04, symBinAddr: 0x100012474, symSize: 0x2E8 }
  - { offsetInCU: 0x2B792, offset: 0x2F1EA, size: 0x8, addend: 0x0, symName: __RNvNtNtCsg55jX0GwzBC_3std6thread7current12init_current, symObjAddr: 0x343A4, symBinAddr: 0x10003911C, symSize: 0x13C }
  - { offsetInCU: 0x2BAD1, offset: 0x2F529, size: 0x8, addend: 0x0, symName: __RNvMs_NtNtCsg55jX0GwzBC_3std6thread6threadNtB4_6Thread3new, symObjAddr: 0x252F0, symBinAddr: 0x1000191D4, symSize: 0x18C }
  - { offsetInCU: 0x2BE4C, offset: 0x2F8A4, size: 0x8, addend: 0x0, symName: __RNvXNtNtNtCsg55jX0GwzBC_3std6thread6thread18thread_name_stringNtB2_16ThreadNameStringINtNtCsl8K0bEFm1U0_4core7convert4FromNtNtCs1OjIl8oxbrv_5alloc6string6StringE4from, symObjAddr: 0x3DE04, symBinAddr: 0x1000244CC, symSize: 0x128 }
  - { offsetInCU: 0x2C083, offset: 0x2FADB, size: 0x8, addend: 0x0, symName: __RNvNvMNtNtCsg55jX0GwzBC_3std6thread2idNtB4_8ThreadId3new9exhausted, symObjAddr: 0x3BB7C, symBinAddr: 0x100039290, symSize: 0x20 }
  - { offsetInCU: 0x2C1A0, offset: 0x2FBF8, size: 0x8, addend: 0x0, symName: __RINvMs5_NtNtCsg55jX0GwzBC_3std2io5errorNtB6_5Error3newReEBa_, symObjAddr: 0x3A34, symBinAddr: 0x1000059EC, symSize: 0x120 }
  - { offsetInCU: 0x2C5D5, offset: 0x3002D, size: 0x8, addend: 0x0, symName: __RNvXNtNtCsg55jX0GwzBC_3std2io5errorNtB2_5ErrorNtNtCsl8K0bEFm1U0_4core3fmt5Debug3fmt, symObjAddr: 0x3D0F8, symBinAddr: 0x1000244C8, symSize: 0x4 }
  - { offsetInCU: 0x2C61F, offset: 0x30077, size: 0x8, addend: 0x0, symName: __RNvXs6_NtNtCsg55jX0GwzBC_3std2io5errorNtNtB5_14repr_bitpacked4ReprNtNtCsl8K0bEFm1U0_4core3fmt5Debug3fmt, symObjAddr: 0x445F8, symBinAddr: 0x100025084, symSize: 0x28C }
  - { offsetInCU: 0x2C8C0, offset: 0x30318, size: 0x8, addend: 0x0, symName: __RNvXs7_NtNtCsg55jX0GwzBC_3std2io5errorNtB5_5ErrorNtNtCsl8K0bEFm1U0_4core3fmt7Display3fmt, symObjAddr: 0x456E0, symBinAddr: 0x100025310, symSize: 0x1B0 }
  - { offsetInCU: 0x2CB4B, offset: 0x305A3, size: 0x8, addend: 0x0, symName: __RNvXse_NtNtCsg55jX0GwzBC_3std2io5errorNtB5_9ErrorKindNtNtCsl8K0bEFm1U0_4core3fmt5Debug3fmt, symObjAddr: 0x49EC4, symBinAddr: 0x100026074, symSize: 0x28 }
  - { offsetInCU: 0x2CBEA, offset: 0x30642, size: 0x8, addend: 0x0, symName: __RNvMs_NtNtNtCsg55jX0GwzBC_3std2io8buffered9bufwriterINtB4_9BufWriterNtNtB8_5stdio9StdoutRawE14write_all_coldBa_, symObjAddr: 0x27A98, symBinAddr: 0x100039068, symSize: 0x90 }
  - { offsetInCU: 0x2CD33, offset: 0x3078B, size: 0x8, addend: 0x0, symName: __RNvMs_NtNtNtCsg55jX0GwzBC_3std2io8buffered9bufwriterINtB4_9BufWriterNtNtB8_5stdio9StdoutRawE9flush_bufBa_, symObjAddr: 0x27B28, symBinAddr: 0x10001B580, symSize: 0x160 }
  - { offsetInCU: 0x2D07E, offset: 0x30AD6, size: 0x8, addend: 0x0, symName: __RNvMs9_NtNtCsg55jX0GwzBC_3std2io5stdioNtB5_6Stdout4lock, symObjAddr: 0x23B10, symBinAddr: 0x100018CA0, symSize: 0x0 }
  - { offsetInCU: 0x2D328, offset: 0x30D80, size: 0x8, addend: 0x0, symName: __RNvXs_NtNtCsg55jX0GwzBC_3std2io5stdioNtB4_9StdoutRawNtB6_5Write9write_all, symObjAddr: 0x4765C, symBinAddr: 0x100025D14, symSize: 0x104 }
  - { offsetInCU: 0x2D4EA, offset: 0x30F42, size: 0x8, addend: 0x0, symName: __RNvNtNtCsg55jX0GwzBC_3std2io5stdio22try_set_output_capture, symObjAddr: 0x31FF4, symBinAddr: 0x10001F738, symSize: 0xEC }
  - { offsetInCU: 0x2D788, offset: 0x311E0, size: 0x8, addend: 0x0, symName: __RNvNtNtCsg55jX0GwzBC_3std2io5stdio31print_to_buffer_if_capture_used, symObjAddr: 0x32140, symBinAddr: 0x10001F824, symSize: 0x210 }
  - { offsetInCU: 0x2DD1A, offset: 0x31772, size: 0x8, addend: 0x0, symName: __RNvNtNtCsg55jX0GwzBC_3std2io5stdio6__print, symObjAddr: 0x32388, symBinAddr: 0x10001FA34, symSize: 0xD8 }
  - { offsetInCU: 0x2DE14, offset: 0x3186C, size: 0x8, addend: 0x0, symName: __RNvXsh_NtNtCsg55jX0GwzBC_3std2io5stdioNtB5_10StdoutLockNtB7_5Write9write_all, symObjAddr: 0x4A9C4, symBinAddr: 0x1000261AC, symSize: 0x198 }
  - { offsetInCU: 0x2E44B, offset: 0x31EA3, size: 0x8, addend: 0x0, symName: __RNvXse_NtNtCsg55jX0GwzBC_3std2io5stdioRNtB5_6StdoutNtB7_5Write9write_fmt, symObjAddr: 0x4A26C, symBinAddr: 0x10002609C, symSize: 0x110 }
  - { offsetInCU: 0x2E6AC, offset: 0x32104, size: 0x8, addend: 0x0, symName: __RNvXs9_NtNtCsg55jX0GwzBC_3std2io5implsINtNtCs1OjIl8oxbrv_5alloc3vec3VechENtB7_5Write14write_vectoredB9_, symObjAddr: 0x45FF8, symBinAddr: 0x1000254C0, symSize: 0x19C }
  - { offsetInCU: 0x2E8FA, offset: 0x32352, size: 0x8, addend: 0x0, symName: __RNvXs9_NtNtCsg55jX0GwzBC_3std2io5implsINtNtCs1OjIl8oxbrv_5alloc3vec3VechENtB7_5Write17is_write_vectoredB9_, symObjAddr: 0x46194, symBinAddr: 0x10002565C, symSize: 0x8 }
  - { offsetInCU: 0x2E921, offset: 0x32379, size: 0x8, addend: 0x0, symName: __RNvXs9_NtNtCsg55jX0GwzBC_3std2io5implsINtNtCs1OjIl8oxbrv_5alloc3vec3VechENtB7_5Write18write_all_vectoredB9_, symObjAddr: 0x4619C, symBinAddr: 0x100025664, symSize: 0x18C }
  - { offsetInCU: 0x2E93F, offset: 0x32397, size: 0x8, addend: 0x0, symName: __RNvXs9_NtNtCsg55jX0GwzBC_3std2io5implsINtNtCs1OjIl8oxbrv_5alloc3vec3VechENtB7_5Write18write_all_vectoredB9_, symObjAddr: 0x4619C, symBinAddr: 0x100025664, symSize: 0x18C }
  - { offsetInCU: 0x2E954, offset: 0x323AC, size: 0x8, addend: 0x0, symName: __RNvXs9_NtNtCsg55jX0GwzBC_3std2io5implsINtNtCs1OjIl8oxbrv_5alloc3vec3VechENtB7_5Write18write_all_vectoredB9_, symObjAddr: 0x4619C, symBinAddr: 0x100025664, symSize: 0x18C }
  - { offsetInCU: 0x2E969, offset: 0x323C1, size: 0x8, addend: 0x0, symName: __RNvXs9_NtNtCsg55jX0GwzBC_3std2io5implsINtNtCs1OjIl8oxbrv_5alloc3vec3VechENtB7_5Write18write_all_vectoredB9_, symObjAddr: 0x4619C, symBinAddr: 0x100025664, symSize: 0x18C }
  - { offsetInCU: 0x2E97E, offset: 0x323D6, size: 0x8, addend: 0x0, symName: __RNvXs9_NtNtCsg55jX0GwzBC_3std2io5implsINtNtCs1OjIl8oxbrv_5alloc3vec3VechENtB7_5Write18write_all_vectoredB9_, symObjAddr: 0x4619C, symBinAddr: 0x100025664, symSize: 0x18C }
  - { offsetInCU: 0x2E993, offset: 0x323EB, size: 0x8, addend: 0x0, symName: __RNvXs9_NtNtCsg55jX0GwzBC_3std2io5implsINtNtCs1OjIl8oxbrv_5alloc3vec3VechENtB7_5Write18write_all_vectoredB9_, symObjAddr: 0x4619C, symBinAddr: 0x100025664, symSize: 0x18C }
  - { offsetInCU: 0x2EBC4, offset: 0x3261C, size: 0x8, addend: 0x0, symName: __RNvXs9_NtNtCsg55jX0GwzBC_3std2io5implsINtNtCs1OjIl8oxbrv_5alloc3vec3VechENtB7_5Write5flushB9_, symObjAddr: 0x46328, symBinAddr: 0x1000257F0, symSize: 0x8 }
  - { offsetInCU: 0x2EBDE, offset: 0x32636, size: 0x8, addend: 0x0, symName: __RNvXs9_NtNtCsg55jX0GwzBC_3std2io5implsINtNtCs1OjIl8oxbrv_5alloc3vec3VechENtB7_5Write5writeB9_, symObjAddr: 0x46330, symBinAddr: 0x1000257F8, symSize: 0x88 }
  - { offsetInCU: 0x2ED22, offset: 0x3277A, size: 0x8, addend: 0x0, symName: __RNvXs9_NtNtCsg55jX0GwzBC_3std2io5implsINtNtCs1OjIl8oxbrv_5alloc3vec3VechENtB7_5Write9write_allB9_, symObjAddr: 0x463B8, symBinAddr: 0x100025880, symSize: 0x84 }
  - { offsetInCU: 0x2EF12, offset: 0x3296A, size: 0x8, addend: 0x0, symName: __RNvYINtNtCs1OjIl8oxbrv_5alloc3vec3VechENtNtCsg55jX0GwzBC_3std2io5Write9write_fmtBF_, symObjAddr: 0x4D2F8, symBinAddr: 0x1000271AC, symSize: 0x9C }
  - { offsetInCU: 0x2EF5C, offset: 0x329B4, size: 0x8, addend: 0x0, symName: __RNvYNtNtNtNtCsg55jX0GwzBC_3std3sys5stdio4unix6StderrNtNtBa_2io5Write18write_all_vectoredBa_, symObjAddr: 0x4DEF4, symBinAddr: 0x100027B70, symSize: 0x1B4 }
  - { offsetInCU: 0x2F1B4, offset: 0x32C0C, size: 0x8, addend: 0x0, symName: __RNvYNtNtNtNtCsg55jX0GwzBC_3std3sys5stdio4unix6StderrNtNtBa_2io5Write9write_allBa_, symObjAddr: 0x4E0A8, symBinAddr: 0x100027D24, symSize: 0xE0 }
  - { offsetInCU: 0x2F2A1, offset: 0x32CF9, size: 0x8, addend: 0x0, symName: __RNvYNtNtNtNtCsg55jX0GwzBC_3std3sys5stdio4unix6StderrNtNtBa_2io5Write9write_fmtBa_, symObjAddr: 0x4E188, symBinAddr: 0x100027E04, symSize: 0x9C }
  - { offsetInCU: 0x2F323, offset: 0x32D7B, size: 0x8, addend: 0x0, symName: __RNvXNvNtCsg55jX0GwzBC_3std2io17default_write_fmtINtB2_7AdapterINtNtB4_6cursor6CursorQShEENtNtCsl8K0bEFm1U0_4core3fmt5Write9write_strB6_, symObjAddr: 0x3E4F8, symBinAddr: 0x100024790, symSize: 0xA0 }
  - { offsetInCU: 0x2F443, offset: 0x32E9B, size: 0x8, addend: 0x0, symName: __RNvXNvNtCsg55jX0GwzBC_3std2io17default_write_fmtINtB2_7AdapterINtNtCs1OjIl8oxbrv_5alloc3vec3VechEENtNtCsl8K0bEFm1U0_4core3fmt5Write9write_strB6_, symObjAddr: 0x3E598, symBinAddr: 0x100024830, symSize: 0x84 }
  - { offsetInCU: 0x2F58E, offset: 0x32FE6, size: 0x8, addend: 0x0, symName: __RNvXNvNtCsg55jX0GwzBC_3std2io17default_write_fmtINtB2_7AdapterNtNtB4_5stdio10StdoutLockENtNtCsl8K0bEFm1U0_4core3fmt5Write9write_strB6_, symObjAddr: 0x3E6B0, symBinAddr: 0x1000248B4, symSize: 0x50 }
  - { offsetInCU: 0x2F5B7, offset: 0x3300F, size: 0x8, addend: 0x0, symName: __RNvXNvNtCsg55jX0GwzBC_3std2io17default_write_fmtINtB2_7AdapterNtNtNtNtB6_3sys5stdio4unix6StderrENtNtCsl8K0bEFm1U0_4core3fmt5Write9write_strB6_, symObjAddr: 0x3E700, symBinAddr: 0x100024904, symSize: 0x100 }
  - { offsetInCU: 0x2F7A9, offset: 0x33201, size: 0x8, addend: 0x0, symName: __RNvMs16_NtCsg55jX0GwzBC_3std4pathNtB6_4Path13__strip_prefix, symObjAddr: 0x1C8BC, symBinAddr: 0x100014644, symSize: 0x1FC }
  - { offsetInCU: 0x2F8D4, offset: 0x3332C, size: 0x8, addend: 0x0, symName: __RNvMs16_NtCsg55jX0GwzBC_3std4pathNtB6_4Path5__join, symObjAddr: 0x1D19C, symBinAddr: 0x100014840, symSize: 0x178 }
  - { offsetInCU: 0x2FEBA, offset: 0x33912, size: 0x8, addend: 0x0, symName: __RNvMs8_NtCsg55jX0GwzBC_3std4pathNtB5_10Components25parse_next_component_back, symObjAddr: 0x22D74, symBinAddr: 0x100018150, symSize: 0x160 }
  - { offsetInCU: 0x3000F, offset: 0x33A67, size: 0x8, addend: 0x0, symName: __RNvMs8_NtCsg55jX0GwzBC_3std4pathNtB5_10Components7as_path, symObjAddr: 0x22ED4, symBinAddr: 0x1000182B0, symSize: 0x220 }
  - { offsetInCU: 0x301D4, offset: 0x33C2C, size: 0x8, addend: 0x0, symName: __RNvXs1Y_NtCsg55jX0GwzBC_3std4pathNtB6_9ComponentNtNtCsl8K0bEFm1U0_4core3cmp9PartialEq2eq, symObjAddr: 0x3FB6C, symBinAddr: 0x100024C0C, symSize: 0x104 }
  - { offsetInCU: 0x30292, offset: 0x33CEA, size: 0x8, addend: 0x0, symName: __RNvXsi_NtCsg55jX0GwzBC_3std4pathNtB5_10ComponentsNtNtNtNtCsl8K0bEFm1U0_4core4iter6traits8iterator8Iterator4next, symObjAddr: 0x4AC7C, symBinAddr: 0x100026344, symSize: 0x304 }
  - { offsetInCU: 0x3038F, offset: 0x33DE7, size: 0x8, addend: 0x0, symName: __RNvXsj_NtCsg55jX0GwzBC_3std4pathNtB5_10ComponentsNtNtNtNtCsl8K0bEFm1U0_4core4iter6traits12double_ended19DoubleEndedIterator9next_back, symObjAddr: 0x4B054, symBinAddr: 0x100026648, symSize: 0x3DC }
  - { offsetInCU: 0x306C9, offset: 0x34121, size: 0x8, addend: 0x0, symName: __RNvXsB_NtCsg55jX0GwzBC_3std2fsNtB5_7ReadDirNtNtNtNtCsl8K0bEFm1U0_4core4iter6traits8iterator8Iterator4next, symObjAddr: 0x46570, symBinAddr: 0x100025904, symSize: 0x18C }
  - { offsetInCU: 0x3097A, offset: 0x343D2, size: 0x8, addend: 0x0, symName: __RINvNtCsg55jX0GwzBC_3std2rt15handle_rt_paniciEB4_, symObjAddr: 0x62E0, symBinAddr: 0x100038374, symSize: 0x30 }
  - { offsetInCU: 0x309B6, offset: 0x3440E, size: 0x8, addend: 0x0, symName: __RNCNCNCNvNtCsg55jX0GwzBC_3std2rt19lang_start_internal00s_0B9_, symObjAddr: 0x13CEC, symBinAddr: 0x1000385D8, symSize: 0x30 }
  - { offsetInCU: 0x30A0F, offset: 0x34467, size: 0x8, addend: 0x0, symName: __RNvNtCsg55jX0GwzBC_3std2rt19lang_start_internal, symObjAddr: 0x2FD34, symBinAddr: 0x10001E754, symSize: 0x618 }
  - { offsetInCU: 0x315C6, offset: 0x3501E, size: 0x8, addend: 0x0, symName: __RNvNtNtCsg55jX0GwzBC_3std9panicking11panic_count17is_zero_slow_path, symObjAddr: 0x34DB0, symBinAddr: 0x100039258, symSize: 0x2C }
  - { offsetInCU: 0x3164C, offset: 0x350A4, size: 0x8, addend: 0x0, symName: __RNvNtNtCsg55jX0GwzBC_3std9panicking11panic_count8increase, symObjAddr: 0x34E40, symBinAddr: 0x10001FDE8, symSize: 0x64 }
  - { offsetInCU: 0x31663, offset: 0x350BB, size: 0x8, addend: 0x0, symName: __RNvNtNtCsg55jX0GwzBC_3std9panicking11panic_count8increase, symObjAddr: 0x34E40, symBinAddr: 0x10001FDE8, symSize: 0x64 }
  - { offsetInCU: 0x31678, offset: 0x350D0, size: 0x8, addend: 0x0, symName: __RNvNtNtCsg55jX0GwzBC_3std9panicking11panic_count8increase, symObjAddr: 0x34E40, symBinAddr: 0x10001FDE8, symSize: 0x64 }
  - { offsetInCU: 0x31773, offset: 0x351CB, size: 0x8, addend: 0x0, symName: __RNCNvNtCsg55jX0GwzBC_3std9panicking12default_hook0B5_, symObjAddr: 0x14B94, symBinAddr: 0x100012CD4, symSize: 0x134 }
  - { offsetInCU: 0x318A7, offset: 0x352FF, size: 0x8, addend: 0x0, symName: __RNCNvNtCsg55jX0GwzBC_3std9panicking13panic_handler0B5_, symObjAddr: 0x14CC8, symBinAddr: 0x100012E08, symSize: 0x98 }
  - { offsetInCU: 0x31A1E, offset: 0x35476, size: 0x8, addend: 0x0, symName: __RNvXs0_NvNtCsg55jX0GwzBC_3std9panicking13panic_handlerNtB5_19FormatStringPayloadNtNtCsl8K0bEFm1U0_4core3fmt7Display3fmt, symObjAddr: 0x3F8C8, symBinAddr: 0x100024A04, symSize: 0x34 }
  - { offsetInCU: 0x31B18, offset: 0x35570, size: 0x8, addend: 0x0, symName: __RNvXs1_NvNtCsg55jX0GwzBC_3std9panicking13panic_handlerNtB5_16StaticStrPayloadNtNtCsl8K0bEFm1U0_4core5panic12PanicPayload3get, symObjAddr: 0x404C8, symBinAddr: 0x100024D10, symSize: 0xC }
  - { offsetInCU: 0x31B32, offset: 0x3558A, size: 0x8, addend: 0x0, symName: __RNvXs1_NvNtCsg55jX0GwzBC_3std9panicking13panic_handlerNtB5_16StaticStrPayloadNtNtCsl8K0bEFm1U0_4core5panic12PanicPayload6as_str, symObjAddr: 0x404D4, symBinAddr: 0x100024D1C, symSize: 0xC }
  - { offsetInCU: 0x31B4C, offset: 0x355A4, size: 0x8, addend: 0x0, symName: __RNvXs1_NvNtCsg55jX0GwzBC_3std9panicking13panic_handlerNtB5_16StaticStrPayloadNtNtCsl8K0bEFm1U0_4core5panic12PanicPayload8take_box, symObjAddr: 0x404E0, symBinAddr: 0x100024D28, symSize: 0x48 }
  - { offsetInCU: 0x31BDE, offset: 0x35636, size: 0x8, addend: 0x0, symName: __RNvXs2_NvNtCsg55jX0GwzBC_3std9panicking13panic_handlerNtB5_16StaticStrPayloadNtNtCsl8K0bEFm1U0_4core3fmt7Display3fmt, symObjAddr: 0x41A58, symBinAddr: 0x100024FBC, symSize: 0x10 }
  - { offsetInCU: 0x31C2B, offset: 0x35683, size: 0x8, addend: 0x0, symName: __RNvXs_NvNtCsg55jX0GwzBC_3std9panicking13panic_handlerNtB4_19FormatStringPayloadNtNtCsl8K0bEFm1U0_4core5panic12PanicPayload3get, symObjAddr: 0x48BB4, symBinAddr: 0x100025E18, symSize: 0xA0 }
  - { offsetInCU: 0x31D86, offset: 0x357DE, size: 0x8, addend: 0x0, symName: __RNvXs_NvNtCsg55jX0GwzBC_3std9panicking13panic_handlerNtB4_19FormatStringPayloadNtNtCsl8K0bEFm1U0_4core5panic12PanicPayload8take_box, symObjAddr: 0x48C54, symBinAddr: 0x100025EB8, symSize: 0x108 }
  - { offsetInCU: 0x3206D, offset: 0x35AC5, size: 0x8, addend: 0x0, symName: __RNvCsfLfy6EI15iL_7___rustc10rust_panic, symObjAddr: 0x15FA4, symBinAddr: 0x10003873C, symSize: 0x48 }
  - { offsetInCU: 0x32088, offset: 0x35AE0, size: 0x8, addend: 0x0, symName: __RNvCsfLfy6EI15iL_7___rustc17___rust_drop_panic, symObjAddr: 0x16118, symBinAddr: 0x100013428, symSize: 0xD4 }
  - { offsetInCU: 0x321BB, offset: 0x35C13, size: 0x8, addend: 0x0, symName: __RNvCsfLfy6EI15iL_7___rustc17rust_begin_unwind, symObjAddr: 0x161EC, symBinAddr: 0x1000134FC, symSize: 0x20 }
  - { offsetInCU: 0x321EC, offset: 0x35C44, size: 0x8, addend: 0x0, symName: __RNvCsfLfy6EI15iL_7___rustc24___rust_foreign_exception, symObjAddr: 0x1629C, symBinAddr: 0x1000135AC, symSize: 0xD4 }
  - { offsetInCU: 0x323B4, offset: 0x35E0C, size: 0x8, addend: 0x0, symName: __RNvNtCsg55jX0GwzBC_3std9panicking12default_hook, symObjAddr: 0x31770, symBinAddr: 0x10001F1AC, symSize: 0x13C }
  - { offsetInCU: 0x32537, offset: 0x35F8F, size: 0x8, addend: 0x0, symName: __RNvNtCsg55jX0GwzBC_3std9panicking14payload_as_str, symObjAddr: 0x31968, symBinAddr: 0x10001F2E8, symSize: 0xC8 }
  - { offsetInCU: 0x32681, offset: 0x360D9, size: 0x8, addend: 0x0, symName: __RNvNtCsg55jX0GwzBC_3std9panicking15panic_with_hook, symObjAddr: 0x31A30, symBinAddr: 0x10001F3B0, symSize: 0x388 }
  - { offsetInCU: 0x32EA5, offset: 0x368FD, size: 0x8, addend: 0x0, symName: __RNvMs_NtNtNtNtCsg55jX0GwzBC_3std12backtrace_rs9symbolize5gimli5machoNtB4_6Object5parse, symObjAddr: 0x281EC, symBinAddr: 0x10001B6E0, symSize: 0xC98 }
  - { offsetInCU: 0x34D75, offset: 0x387CD, size: 0x8, addend: 0x0, symName: __RNvMs_NtNtNtNtCsg55jX0GwzBC_3std12backtrace_rs9symbolize5gimli5machoNtB4_6Object7section, symObjAddr: 0x28E84, symBinAddr: 0x10001C378, symSize: 0x150 }
  - { offsetInCU: 0x351A4, offset: 0x38BFC, size: 0x8, addend: 0x0, symName: __RNvNtNtNtNtCsg55jX0GwzBC_3std12backtrace_rs9symbolize5gimli5macho11find_header, symObjAddr: 0x39738, symBinAddr: 0x1000227CC, symSize: 0x1DC }
  - { offsetInCU: 0x351C1, offset: 0x38C19, size: 0x8, addend: 0x0, symName: __RNvNtNtNtNtCsg55jX0GwzBC_3std12backtrace_rs9symbolize5gimli5macho11find_header, symObjAddr: 0x39738, symBinAddr: 0x1000227CC, symSize: 0x1DC }
  - { offsetInCU: 0x351D5, offset: 0x38C2D, size: 0x8, addend: 0x0, symName: __RNvNtNtNtNtCsg55jX0GwzBC_3std12backtrace_rs9symbolize5gimli5macho11find_header, symObjAddr: 0x39738, symBinAddr: 0x1000227CC, symSize: 0x1DC }
  - { offsetInCU: 0x351E9, offset: 0x38C41, size: 0x8, addend: 0x0, symName: __RNvNtNtNtNtCsg55jX0GwzBC_3std12backtrace_rs9symbolize5gimli5macho11find_header, symObjAddr: 0x39738, symBinAddr: 0x1000227CC, symSize: 0x1DC }
  - { offsetInCU: 0x351FD, offset: 0x38C55, size: 0x8, addend: 0x0, symName: __RNvNtNtNtNtCsg55jX0GwzBC_3std12backtrace_rs9symbolize5gimli5macho11find_header, symObjAddr: 0x39738, symBinAddr: 0x1000227CC, symSize: 0x1DC }
  - { offsetInCU: 0x35212, offset: 0x38C6A, size: 0x8, addend: 0x0, symName: __RNvNtNtNtNtCsg55jX0GwzBC_3std12backtrace_rs9symbolize5gimli5macho11find_header, symObjAddr: 0x39738, symBinAddr: 0x1000227CC, symSize: 0x1DC }
  - { offsetInCU: 0x35227, offset: 0x38C7F, size: 0x8, addend: 0x0, symName: __RNvNtNtNtNtCsg55jX0GwzBC_3std12backtrace_rs9symbolize5gimli5macho11find_header, symObjAddr: 0x39738, symBinAddr: 0x1000227CC, symSize: 0x1DC }
  - { offsetInCU: 0x35815, offset: 0x3926D, size: 0x8, addend: 0x0, symName: __RNvMs_NtNtNtCsg55jX0GwzBC_3std12backtrace_rs9symbolize5gimliNtB4_7Context11find_frames, symObjAddr: 0x2577C, symBinAddr: 0x100019360, symSize: 0x398 }
  - { offsetInCU: 0x35C9C, offset: 0x396F4, size: 0x8, addend: 0x0, symName: __RNvMs_NtNtNtCsg55jX0GwzBC_3std12backtrace_rs9symbolize5gimliNtB4_7Context3new, symObjAddr: 0x25B14, symBinAddr: 0x1000196F8, symSize: 0x1E88 }
  - { offsetInCU: 0x3A032, offset: 0x3DA8A, size: 0x8, addend: 0x0, symName: __RNvNtNtNtCsg55jX0GwzBC_3std12backtrace_rs9symbolize5gimli4mmap, symObjAddr: 0x34EC8, symBinAddr: 0x10001FE4C, symSize: 0x1E0 }
  - { offsetInCU: 0x3A5D0, offset: 0x3E028, size: 0x8, addend: 0x0, symName: __RNvNtNtNtCsg55jX0GwzBC_3std12backtrace_rs9symbolize5gimli7resolve, symObjAddr: 0x350A8, symBinAddr: 0x10002002C, symSize: 0x2570 }
  - { offsetInCU: 0x3FD61, offset: 0x437B9, size: 0x8, addend: 0x0, symName: __RNvMs_NtNtCsg55jX0GwzBC_3std12backtrace_rs9symbolizeNtB4_6Symbol4name, symObjAddr: 0x2518C, symBinAddr: 0x100019100, symSize: 0xD4 }
  - { offsetInCU: 0x3FEC2, offset: 0x4391A, size: 0x8, addend: 0x0, symName: __RNvXs2_NtNtCsg55jX0GwzBC_3std12backtrace_rs9symbolizeNtB5_10SymbolNameNtNtCsl8K0bEFm1U0_4core3fmt7Display3fmt, symObjAddr: 0x41544, symBinAddr: 0x100024EB8, symSize: 0x104 }
  - { offsetInCU: 0x3FF8F, offset: 0x439E7, size: 0x8, addend: 0x0, symName: __RNvNvNtNtNtCsg55jX0GwzBC_3std12backtrace_rs9backtrace9libunwind5trace8trace_fn, symObjAddr: 0x3CB18, symBinAddr: 0x100024368, symSize: 0x48 }
  - { offsetInCU: 0x40061, offset: 0x43AB9, size: 0x8, addend: 0x0, symName: __RNvMs_NtNtCsg55jX0GwzBC_3std12backtrace_rs5printNtB4_17BacktraceFrameFmt21print_raw_with_column, symObjAddr: 0x24DD8, symBinAddr: 0x100018D84, symSize: 0x37C }
  - { offsetInCU: 0x402D6, offset: 0x43D2E, size: 0x8, addend: 0x0, symName: __RNCNvNtCsg55jX0GwzBC_3std5alloc8rust_oom0B5_, symObjAddr: 0x14B60, symBinAddr: 0x100038608, symSize: 0x34 }
  - { offsetInCU: 0x40323, offset: 0x43D7B, size: 0x8, addend: 0x0, symName: __RNvCsfLfy6EI15iL_7___rustc11___rdl_alloc, symObjAddr: 0x15FEC, symBinAddr: 0x100013308, symSize: 0x6C }
  - { offsetInCU: 0x403A0, offset: 0x43DF8, size: 0x8, addend: 0x0, symName: __RNvCsfLfy6EI15iL_7___rustc13___rdl_dealloc, symObjAddr: 0x16064, symBinAddr: 0x100013374, symSize: 0x4 }
  - { offsetInCU: 0x403BE, offset: 0x43E16, size: 0x8, addend: 0x0, symName: __RNvCsfLfy6EI15iL_7___rustc13___rdl_dealloc, symObjAddr: 0x16064, symBinAddr: 0x100013374, symSize: 0x4 }
  - { offsetInCU: 0x403D0, offset: 0x43E28, size: 0x8, addend: 0x0, symName: __RNvCsfLfy6EI15iL_7___rustc13___rdl_realloc, symObjAddr: 0x16068, symBinAddr: 0x100013378, symSize: 0xB0 }
  - { offsetInCU: 0x404A3, offset: 0x43EFB, size: 0x8, addend: 0x0, symName: __RNvCsfLfy6EI15iL_7___rustc18___rdl_alloc_zeroed, symObjAddr: 0x1620C, symBinAddr: 0x10001351C, symSize: 0x90 }
  - { offsetInCU: 0x40547, offset: 0x43F9F, size: 0x8, addend: 0x0, symName: __RNvCsfLfy6EI15iL_7___rustc26___rust_alloc_error_handler, symObjAddr: 0x16370, symBinAddr: 0x100038784, symSize: 0x18 }
  - { offsetInCU: 0x405AB, offset: 0x44003, size: 0x8, addend: 0x0, symName: __RNvNtCsg55jX0GwzBC_3std5alloc24default_alloc_error_hook, symObjAddr: 0x31468, symBinAddr: 0x10001EF04, symSize: 0x108 }
  - { offsetInCU: 0x4061B, offset: 0x44073, size: 0x8, addend: 0x0, symName: __RNvNtCsg55jX0GwzBC_3std5alloc8rust_oom, symObjAddr: 0x31570, symBinAddr: 0x1000390F8, symSize: 0x18 }
  - { offsetInCU: 0x40676, offset: 0x440CE, size: 0x8, addend: 0x0, symName: __RNvNtCsg55jX0GwzBC_3std5panic19get_backtrace_style, symObjAddr: 0x31594, symBinAddr: 0x10001F00C, symSize: 0x1A0 }
  - { offsetInCU: 0x40694, offset: 0x440EC, size: 0x8, addend: 0x0, symName: __RNvNtCsg55jX0GwzBC_3std5panic19get_backtrace_style, symObjAddr: 0x31594, symBinAddr: 0x10001F00C, symSize: 0x1A0 }
  - { offsetInCU: 0x406A9, offset: 0x44101, size: 0x8, addend: 0x0, symName: __RNvNtCsg55jX0GwzBC_3std5panic19get_backtrace_style, symObjAddr: 0x31594, symBinAddr: 0x10001F00C, symSize: 0x1A0 }
  - { offsetInCU: 0x40C02, offset: 0x4465A, size: 0x8, addend: 0x0, symName: __RNvNtCsg55jX0GwzBC_3std3env11current_dir, symObjAddr: 0x303AC, symBinAddr: 0x10001ED6C, symSize: 0x198 }
  - { offsetInCU: 0x41087, offset: 0x44ADF, size: 0x8, addend: 0x0, symName: __RNvNtCsg55jX0GwzBC_3std7process5abort, symObjAddr: 0x31764, symBinAddr: 0x100039110, symSize: 0xC }
  - { offsetInCU: 0x410E4, offset: 0x44B3C, size: 0x8, addend: 0x0, symName: __RNvMs1_NtCs2IzQ63mrjeP_9addr2line8functionINtB5_8FunctionINtNtNtCscUtGwbhD4WH_5gimli4read12endian_slice11EndianSliceNtNtB10_9endianity12LittleEndianEE14parse_childrenCsg55jX0GwzBC_3std, symObjAddr: 0x1D864, symBinAddr: 0x1000149B8, symSize: 0xEA8 }
  - { offsetInCU: 0x4290B, offset: 0x46363, size: 0x8, addend: 0x0, symName: __RINvNtCs2IzQ63mrjeP_9addr2line8function10name_entryINtNtNtCscUtGwbhD4WH_5gimli4read12endian_slice11EndianSliceNtNtBU_9endianity12LittleEndianEECsg55jX0GwzBC_3std, symObjAddr: 0x53B8, symBinAddr: 0x1000067AC, symSize: 0x364 }
  - { offsetInCU: 0x42DB3, offset: 0x4680B, size: 0x8, addend: 0x0, symName: __RINvNtCs2IzQ63mrjeP_9addr2line8function9name_attrINtNtNtCscUtGwbhD4WH_5gimli4read12endian_slice11EndianSliceNtNtBS_9endianity12LittleEndianEECsg55jX0GwzBC_3std, symObjAddr: 0x571C, symBinAddr: 0x100006B10, symSize: 0x1C0 }
  - { offsetInCU: 0x430EF, offset: 0x46B47, size: 0x8, addend: 0x0, symName: __RINvNtCs2IzQ63mrjeP_9addr2line4line11render_fileINtNtNtCscUtGwbhD4WH_5gimli4read12endian_slice11EndianSliceNtNtBR_9endianity12LittleEndianEECsg55jX0GwzBC_3std, symObjAddr: 0x4F30, symBinAddr: 0x100006324, symSize: 0x488 }
  - { offsetInCU: 0x43ACF, offset: 0x47527, size: 0x8, addend: 0x0, symName: __RNvMs0_Cs2IzQ63mrjeP_9addr2lineINtB5_7ContextINtNtNtCscUtGwbhD4WH_5gimli4read12endian_slice11EndianSliceNtNtBO_9endianity12LittleEndianEE9find_unitCsg55jX0GwzBC_3std, symObjAddr: 0x1A4C0, symBinAddr: 0x100013E28, symSize: 0x15C }
  - { offsetInCU: 0x43D49, offset: 0x477A1, size: 0x8, addend: 0x0, symName: __RNvMNtCs2IzQ63mrjeP_9addr2line4unitINtB2_7ResUnitINtNtNtCscUtGwbhD4WH_5gimli4read12endian_slice11EndianSliceNtNtBS_9endianity12LittleEndianEE25find_function_or_locationCsg55jX0GwzBC_3std, symObjAddr: 0x16388, symBinAddr: 0x100013680, symSize: 0x380 }
  - { offsetInCU: 0x4422B, offset: 0x47C83, size: 0x8, addend: 0x0, symName: __RNCNvMNtCs2IzQ63mrjeP_9addr2line4unitINtB4_7ResUnitINtNtNtCscUtGwbhD4WH_5gimli4read12endian_slice11EndianSliceNtNtBU_9endianity12LittleEndianEE25find_function_or_location0Csg55jX0GwzBC_3std, symObjAddr: 0x142B4, symBinAddr: 0x1000129A0, symSize: 0x328 }
  - { offsetInCU: 0x44666, offset: 0x480BE, size: 0x8, addend: 0x0, symName: __RNvMs2_NtCs2IzQ63mrjeP_9addr2line6lookupINtB5_13LoopingLookupINtNtCsl8K0bEFm1U0_4core6result6ResultINtNtB7_5frame9FrameIterINtNtNtCscUtGwbhD4WH_5gimli4read12endian_slice11EndianSliceNtNtB24_9endianity12LittleEndianEENtB22_5ErrorEINtB5_12MappedLookupIBY_TINtNtB12_6option6OptionRINtNtB7_8function8FunctionB1X_EEIB45_NtB1C_8LocationEEB3s_EINtB5_12SimpleLookupIBY_TNtB7_9DebugFileINtNtB22_5dwarf7UnitRefB1X_EEB3s_EB1X_NCNvMNtB7_4unitINtB6K_7ResUnitB1X_E14dwarf_and_units4_0ENCNvB6J_25find_function_or_location0ENCNvMs_B7_INtB7_7ContextB1X_E11find_frames0E10new_lookupCsg55jX0GwzBC_3std, symObjAddr: 0x1EE60, symBinAddr: 0x100015A14, symSize: 0x44C }
  - { offsetInCU: 0x44BB9, offset: 0x48611, size: 0x8, addend: 0x0, symName: __RNvMNtCs2IzQ63mrjeP_9addr2line5frameINtB2_9FrameIterINtNtNtCscUtGwbhD4WH_5gimli4read12endian_slice11EndianSliceNtNtBV_9endianity12LittleEndianEE4nextCsg55jX0GwzBC_3std, symObjAddr: 0x16708, symBinAddr: 0x100013A00, symSize: 0x2C0 }
  - { offsetInCU: 0x453BE, offset: 0x48E16, size: 0x8, addend: 0x0, symName: __RNvMsb_NtNtCscUtGwbhD4WH_5gimli4read4unitINtB5_9AttributeINtNtB7_12endian_slice11EndianSliceNtNtB9_9endianity12LittleEndianEE5valueCsg55jX0GwzBC_3std, symObjAddr: 0x2A89C, symBinAddr: 0x10001C4C8, symSize: 0x654 }
  - { offsetInCU: 0x45767, offset: 0x491BF, size: 0x8, addend: 0x0, symName: __RNvXsJ_NtNtCscUtGwbhD4WH_5gimli4read4unitINtB5_14AttributeValueINtNtB7_12endian_slice11EndianSliceNtNtB9_9endianity12LittleEndianEjENtNtCsl8K0bEFm1U0_4core5clone5Clone5cloneCsg55jX0GwzBC_3std, symObjAddr: 0x467F8, symBinAddr: 0x100025A90, symSize: 0x68 }
  - { offsetInCU: 0x457CE, offset: 0x49226, size: 0x8, addend: 0x0, symName: __RNvMsc_NtNtCscUtGwbhD4WH_5gimli4read4unitINtB5_14AttributeValueINtNtB7_12endian_slice11EndianSliceNtNtB9_9endianity12LittleEndianEjE8u8_valueCsg55jX0GwzBC_3std, symObjAddr: 0x2AEF0, symBinAddr: 0x10001CB1C, symSize: 0x94 }
  - { offsetInCU: 0x45803, offset: 0x4925B, size: 0x8, addend: 0x0, symName: __RNvMsc_NtNtCscUtGwbhD4WH_5gimli4read4unitINtB5_14AttributeValueINtNtB7_12endian_slice11EndianSliceNtNtB9_9endianity12LittleEndianEjE9u16_valueCsg55jX0GwzBC_3std, symObjAddr: 0x2AF84, symBinAddr: 0x10001CBB0, symSize: 0x94 }
  - { offsetInCU: 0x4586D, offset: 0x492C5, size: 0x8, addend: 0x0, symName: __RINvNtNtCscUtGwbhD4WH_5gimli4read4unit15parse_attributeINtNtB4_12endian_slice11EndianSliceNtNtB6_9endianity12LittleEndianEECsg55jX0GwzBC_3std, symObjAddr: 0x9BB0, symBinAddr: 0x10000940C, symSize: 0xF34 }
  - { offsetInCU: 0x47F4F, offset: 0x4B9A7, size: 0x8, addend: 0x0, symName: __RINvNtNtCscUtGwbhD4WH_5gimli4read4unit15skip_attributesINtNtB4_12endian_slice11EndianSliceNtNtB6_9endianity12LittleEndianEECsg55jX0GwzBC_3std, symObjAddr: 0xAAE4, symBinAddr: 0x10000A340, symSize: 0x4A0 }
  - { offsetInCU: 0x487A7, offset: 0x4C1FF, size: 0x8, addend: 0x0, symName: __RNvMsf_NtNtCscUtGwbhD4WH_5gimli4read4unitINtB5_13EntriesCursorINtNtB7_12endian_slice11EndianSliceNtNtB9_9endianity12LittleEndianEE10next_entryCsg55jX0GwzBC_3std, symObjAddr: 0x2BEE0, symBinAddr: 0x10001DB0C, symSize: 0x2B8 }
  - { offsetInCU: 0x48DC2, offset: 0x4C81A, size: 0x8, addend: 0x0, symName: __RNvMs6_NtNtCscUtGwbhD4WH_5gimli4read4unitINtB5_24DebugInfoUnitHeadersIterINtNtB7_12endian_slice11EndianSliceNtNtB9_9endianity12LittleEndianEE4nextCsg55jX0GwzBC_3std, symObjAddr: 0x226A0, symBinAddr: 0x100017D1C, symSize: 0x434 }
  - { offsetInCU: 0x49D78, offset: 0x4D7D0, size: 0x8, addend: 0x0, symName: __RNvMs4_NtNtCscUtGwbhD4WH_5gimli4read5dwarfINtB5_4UnitINtNtB7_12endian_slice11EndianSliceNtNtB9_9endianity12LittleEndianEjE3newCsg55jX0GwzBC_3std, symObjAddr: 0x20540, symBinAddr: 0x100015E60, symSize: 0x1B88 }
  - { offsetInCU: 0x4D5CC, offset: 0x51024, size: 0x8, addend: 0x0, symName: __RNvMs0_NtNtCscUtGwbhD4WH_5gimli4read5dwarfINtB5_5DwarfINtNtB7_12endian_slice11EndianSliceNtNtB9_9endianity12LittleEndianEE11attr_stringCsg55jX0GwzBC_3std, symObjAddr: 0x1A61C, symBinAddr: 0x100013F84, symSize: 0x220 }
  - { offsetInCU: 0x4DEDA, offset: 0x51932, size: 0x8, addend: 0x0, symName: __RNvYINtNtNtCscUtGwbhD4WH_5gimli4read12endian_slice11EndianSliceNtNtB9_9endianity12LittleEndianENtNtB7_6reader6Reader11read_offsetCsg55jX0GwzBC_3std, symObjAddr: 0x4D394, symBinAddr: 0x100027248, symSize: 0x88 }
  - { offsetInCU: 0x4E0DD, offset: 0x51B35, size: 0x8, addend: 0x0, symName: __RNvYINtNtNtCscUtGwbhD4WH_5gimli4read12endian_slice11EndianSliceNtNtB9_9endianity12LittleEndianENtNtB7_6reader6Reader12read_sleb128Csg55jX0GwzBC_3std, symObjAddr: 0x4D41C, symBinAddr: 0x1000272D0, symSize: 0x23C }
  - { offsetInCU: 0x4E1A8, offset: 0x51C00, size: 0x8, addend: 0x0, symName: __RNvYINtNtNtCscUtGwbhD4WH_5gimli4read12endian_slice11EndianSliceNtNtB9_9endianity12LittleEndianENtNtB7_6reader6Reader12read_uleb128Csg55jX0GwzBC_3std, symObjAddr: 0x4D658, symBinAddr: 0x10002750C, symSize: 0xB8 }
  - { offsetInCU: 0x4E263, offset: 0x51CBB, size: 0x8, addend: 0x0, symName: __RNvYINtNtNtCscUtGwbhD4WH_5gimli4read12endian_slice11EndianSliceNtNtB9_9endianity12LittleEndianENtNtB7_6reader6Reader17read_sized_offsetCsg55jX0GwzBC_3std, symObjAddr: 0x4D710, symBinAddr: 0x1000275C4, symSize: 0x120 }
  - { offsetInCU: 0x4E881, offset: 0x522D9, size: 0x8, addend: 0x0, symName: __RNvMsc_NtNtCscUtGwbhD4WH_5gimli4read8rnglistsINtB5_11RngListIterINtNtB7_12endian_slice11EndianSliceNtNtB9_9endianity12LittleEndianEE4nextCsg55jX0GwzBC_3std, symObjAddr: 0x2B018, symBinAddr: 0x10001CC44, symSize: 0xCAC }
  - { offsetInCU: 0x51118, offset: 0x54B70, size: 0x8, addend: 0x0, symName: __RNvMsd_NtNtCscUtGwbhD4WH_5gimli4read4lineINtB5_9FileEntryINtNtB7_12endian_slice11EndianSliceNtNtB9_9endianity12LittleEndianEjE5parseCsg55jX0GwzBC_3std, symObjAddr: 0x2BCC4, symBinAddr: 0x10001D8F0, symSize: 0x21C }
  - { offsetInCU: 0x5139B, offset: 0x54DF3, size: 0x8, addend: 0x0, symName: __RINvMse_NtNtCscUtGwbhD4WH_5gimli4read4lineNtB6_15FileEntryFormat5parseINtNtB8_12endian_slice11EndianSliceNtNtBa_9endianity12LittleEndianEECsg55jX0GwzBC_3std, symObjAddr: 0x4A1C, symBinAddr: 0x100005FBC, symSize: 0x368 }
  - { offsetInCU: 0x51B15, offset: 0x5556D, size: 0x8, addend: 0x0, symName: __RINvNtNtCscUtGwbhD4WH_5gimli4read4line13parse_file_v5INtNtB4_12endian_slice11EndianSliceNtNtB6_9endianity12LittleEndianEECsg55jX0GwzBC_3std, symObjAddr: 0x9024, symBinAddr: 0x100008880, symSize: 0x2A8 }
  - { offsetInCU: 0x51CA2, offset: 0x556FA, size: 0x8, addend: 0x0, symName: __RINvNtNtCscUtGwbhD4WH_5gimli4read4line15parse_attributeINtNtB4_12endian_slice11EndianSliceNtNtB6_9endianity12LittleEndianEECsg55jX0GwzBC_3std, symObjAddr: 0x92CC, symBinAddr: 0x100008B28, symSize: 0x800 }
  - { offsetInCU: 0x53058, offset: 0x56AB0, size: 0x8, addend: 0x0, symName: __RINvNtNtCscUtGwbhD4WH_5gimli4read4line18parse_directory_v5INtNtB4_12endian_slice11EndianSliceNtNtB6_9endianity12LittleEndianEECsg55jX0GwzBC_3std, symObjAddr: 0x9ACC, symBinAddr: 0x100009328, symSize: 0xE4 }
  - { offsetInCU: 0x53113, offset: 0x56B6B, size: 0x8, addend: 0x0, symName: __RNvXs11_NtNtCscUtGwbhD4WH_5gimli4read4lineINtB6_9FileEntryINtNtB8_12endian_slice11EndianSliceNtNtBa_9endianity12LittleEndianEjENtNtCsl8K0bEFm1U0_4core5clone5Clone5cloneCsg55jX0GwzBC_3std, symObjAddr: 0x3F8FC, symBinAddr: 0x100024A38, symSize: 0x1D4 }
  - { offsetInCU: 0x531D8, offset: 0x56C30, size: 0x8, addend: 0x0, symName: __RNvMs4_NtNtCscUtGwbhD4WH_5gimli4read7arangesINtB5_12ArangeHeaderINtNtB7_12endian_slice11EndianSliceNtNtB9_9endianity12LittleEndianEjE5parseCsg55jX0GwzBC_3std, symObjAddr: 0x220C8, symBinAddr: 0x1000179E8, symSize: 0x2BC }
  - { offsetInCU: 0x53201, offset: 0x56C59, size: 0x8, addend: 0x0, symName: __RNvMs4_NtNtCscUtGwbhD4WH_5gimli4read7arangesINtB5_12ArangeHeaderINtNtB7_12endian_slice11EndianSliceNtNtB9_9endianity12LittleEndianEjE5parseCsg55jX0GwzBC_3std, symObjAddr: 0x220C8, symBinAddr: 0x1000179E8, symSize: 0x2BC }
  - { offsetInCU: 0x53216, offset: 0x56C6E, size: 0x8, addend: 0x0, symName: __RNvMs4_NtNtCscUtGwbhD4WH_5gimli4read7arangesINtB5_12ArangeHeaderINtNtB7_12endian_slice11EndianSliceNtNtB9_9endianity12LittleEndianEjE5parseCsg55jX0GwzBC_3std, symObjAddr: 0x220C8, symBinAddr: 0x1000179E8, symSize: 0x2BC }
  - { offsetInCU: 0x5322B, offset: 0x56C83, size: 0x8, addend: 0x0, symName: __RNvMs4_NtNtCscUtGwbhD4WH_5gimli4read7arangesINtB5_12ArangeHeaderINtNtB7_12endian_slice11EndianSliceNtNtB9_9endianity12LittleEndianEjE5parseCsg55jX0GwzBC_3std, symObjAddr: 0x220C8, symBinAddr: 0x1000179E8, symSize: 0x2BC }
  - { offsetInCU: 0x5392B, offset: 0x57383, size: 0x8, addend: 0x0, symName: __RNvMs8_NtNtCscUtGwbhD4WH_5gimli4read5indexINtB5_9UnitIndexINtNtB7_12endian_slice11EndianSliceNtNtB9_9endianity12LittleEndianEE5parseCsg55jX0GwzBC_3std, symObjAddr: 0x230F4, symBinAddr: 0x1000184D0, symSize: 0x7D0 }
  - { offsetInCU: 0x54377, offset: 0x57DCF, size: 0x8, addend: 0x0, symName: __RNvMsn_NtCs1OjIl8oxbrv_5alloc4syncINtB5_3ArcINtNtNtCscUtGwbhD4WH_5gimli4read5dwarf5DwarfINtNtBL_12endian_slice11EndianSliceNtNtBN_9endianity12LittleEndianEEE9drop_slowCsg55jX0GwzBC_3std, symObjAddr: 0x2E564, symBinAddr: 0x10001DFA8, symSize: 0xD0 }
  - { offsetInCU: 0x545E3, offset: 0x5803B, size: 0x8, addend: 0x0, symName: __RNvMsn_NtCs1OjIl8oxbrv_5alloc4syncINtB5_3ArcINtNtNtCsl8K0bEFm1U0_4core3mem12maybe_uninit11MaybeUninitNtNtNtCsg55jX0GwzBC_3std6thread6thread5InnerENtNtB1H_5alloc6SystemE9drop_slowB1H_, symObjAddr: 0x2E634, symBinAddr: 0x10001E078, symSize: 0x2C }
  - { offsetInCU: 0x546BF, offset: 0x58117, size: 0x8, addend: 0x0, symName: __RNvMsn_NtCs1OjIl8oxbrv_5alloc4syncINtB5_3ArcINtNtNtNtCsg55jX0GwzBC_3std4sync6poison5mutex5MutexINtNtB7_3vec3VechEEE9drop_slowBP_, symObjAddr: 0x2E660, symBinAddr: 0x10001E0A4, symSize: 0xA0 }
  - { offsetInCU: 0x54A38, offset: 0x58490, size: 0x8, addend: 0x0, symName: __RNvMsn_NtCs1OjIl8oxbrv_5alloc4syncINtB5_3ArcNtNtNtCscUtGwbhD4WH_5gimli4read6abbrev13AbbreviationsE9drop_slowCsg55jX0GwzBC_3std, symObjAddr: 0x2E700, symBinAddr: 0x10001E144, symSize: 0x98 }
  - { offsetInCU: 0x54C2D, offset: 0x58685, size: 0x8, addend: 0x0, symName: __RNvMsn_NtCs1OjIl8oxbrv_5alloc4syncINtB5_3ArcNtNtNtCsg55jX0GwzBC_3std6thread6thread5InnerNtNtBM_5alloc6SystemE9drop_slowBM_, symObjAddr: 0x2E798, symBinAddr: 0x10001E1DC, symSize: 0x70 }
  - { offsetInCU: 0x54E23, offset: 0x5887B, size: 0x8, addend: 0x0, symName: __RNvMsn_NtCs1OjIl8oxbrv_5alloc4syncINtB5_3ArcNtNtNtNtCsg55jX0GwzBC_3std3sys2fs4unix12InnerReadDirE9drop_slowBO_, symObjAddr: 0x2E8A0, symBinAddr: 0x10001E24C, symSize: 0xC0 }
  - { offsetInCU: 0x5660C, offset: 0x5A064, size: 0x8, addend: 0x0, symName: __RNvMs4_NtCs1OjIl8oxbrv_5alloc7raw_vecINtB5_11RawVecInnerNtNtCsg55jX0GwzBC_3std5alloc6SystemE11finish_growBW_, symObjAddr: 0x20388, symBinAddr: 0x100038EB0, symSize: 0x94 }
  - { offsetInCU: 0x5671F, offset: 0x5A177, size: 0x8, addend: 0x0, symName: __RNvMs4_NtCs1OjIl8oxbrv_5alloc7raw_vecINtB5_11RawVecInnerNtNtCsg55jX0GwzBC_3std5alloc6SystemE14grow_amortizedBW_, symObjAddr: 0x2041C, symBinAddr: 0x100038F44, symSize: 0x70 }
  - { offsetInCU: 0x567C8, offset: 0x5A220, size: 0x8, addend: 0x0, symName: __RNvMs4_NtCs1OjIl8oxbrv_5alloc7raw_vecNtB5_11RawVecInner11finish_growCsg55jX0GwzBC_3std, symObjAddr: 0x2048C, symBinAddr: 0x100038FB4, symSize: 0xB4 }
  - { offsetInCU: 0x56F86, offset: 0x5A9DE, size: 0x8, addend: 0x0, symName: __RNvMs3_NtCs1OjIl8oxbrv_5alloc7raw_vecINtB5_6RawVecINtNtB7_5boxed3BoxDINtNtNtCsl8K0bEFm1U0_4core3ops8function5FnMutuEp6OutputINtNtB1c_6result6ResultuNtNtNtCsg55jX0GwzBC_3std2io5error5ErrorENtNtB1c_6marker4SyncNtB32_4SendEL_EE8grow_oneB2s_, symObjAddr: 0x1FB6C, symBinAddr: 0x100038A10, symSize: 0x0 }
  - { offsetInCU: 0x57008, offset: 0x5AA60, size: 0x8, addend: 0x0, symName: __RNvMs3_NtCs1OjIl8oxbrv_5alloc7raw_vecINtB5_6RawVecINtNtCs2IzQ63mrjeP_9addr2line4unit7ResUnitINtNtNtCscUtGwbhD4WH_5gimli4read12endian_slice11EndianSliceNtNtB1z_9endianity12LittleEndianEEE8grow_oneCsg55jX0GwzBC_3std, symObjAddr: 0x1FBD4, symBinAddr: 0x100038A78, symSize: 0x68 }
  - { offsetInCU: 0x5708A, offset: 0x5AAE2, size: 0x8, addend: 0x0, symName: __RNvMs3_NtCs1OjIl8oxbrv_5alloc7raw_vecINtB5_6RawVecINtNtCs2IzQ63mrjeP_9addr2line4unit7SupUnitINtNtNtCscUtGwbhD4WH_5gimli4read12endian_slice11EndianSliceNtNtB1z_9endianity12LittleEndianEEE8grow_oneCsg55jX0GwzBC_3std, symObjAddr: 0x1FC3C, symBinAddr: 0x100038AE0, symSize: 0x68 }
  - { offsetInCU: 0x5710C, offset: 0x5AB64, size: 0x8, addend: 0x0, symName: __RNvMs3_NtCs1OjIl8oxbrv_5alloc7raw_vecINtB5_6RawVecINtNtCs2IzQ63mrjeP_9addr2line8function12LazyFunctionINtNtNtCscUtGwbhD4WH_5gimli4read12endian_slice11EndianSliceNtNtB1J_9endianity12LittleEndianEEE8grow_oneCsg55jX0GwzBC_3std, symObjAddr: 0x1FCA4, symBinAddr: 0x100038B48, symSize: 0x0 }
  - { offsetInCU: 0x5718E, offset: 0x5ABE6, size: 0x8, addend: 0x0, symName: __RNvMs3_NtCs1OjIl8oxbrv_5alloc7raw_vecINtB5_6RawVecINtNtCs2IzQ63mrjeP_9addr2line8function15InlinedFunctionINtNtNtCscUtGwbhD4WH_5gimli4read12endian_slice11EndianSliceNtNtB1M_9endianity12LittleEndianEEE8grow_oneCsg55jX0GwzBC_3std, symObjAddr: 0x1FD0C, symBinAddr: 0x100038BB0, symSize: 0x0 }
  - { offsetInCU: 0x57210, offset: 0x5AC68, size: 0x8, addend: 0x0, symName: __RNvMs3_NtCs1OjIl8oxbrv_5alloc7raw_vecINtB5_6RawVecINtNtNtCscUtGwbhD4WH_5gimli4read4line9FileEntryINtNtBR_12endian_slice11EndianSliceNtNtBT_9endianity12LittleEndianEjEE8grow_oneCsg55jX0GwzBC_3std, symObjAddr: 0x1FD74, symBinAddr: 0x100038C18, symSize: 0x68 }
  - { offsetInCU: 0x57292, offset: 0x5ACEA, size: 0x8, addend: 0x0, symName: __RNvMs3_NtCs1OjIl8oxbrv_5alloc7raw_vecINtB5_6RawVecINtNtNtCscUtGwbhD4WH_5gimli4read4unit14AttributeValueINtNtBR_12endian_slice11EndianSliceNtNtBT_9endianity12LittleEndianEjEE8grow_oneCsg55jX0GwzBC_3std, symObjAddr: 0x1FDDC, symBinAddr: 0x100038C80, symSize: 0x0 }
  - { offsetInCU: 0x57314, offset: 0x5AD6C, size: 0x8, addend: 0x0, symName: __RNvMs3_NtCs1OjIl8oxbrv_5alloc7raw_vecINtB5_6RawVecNtNtCs2IzQ63mrjeP_9addr2line4line12LineSequenceE8grow_oneCsg55jX0GwzBC_3std, symObjAddr: 0x1FE44, symBinAddr: 0x100038CE8, symSize: 0x0 }
  - { offsetInCU: 0x57396, offset: 0x5ADEE, size: 0x8, addend: 0x0, symName: __RNvMs3_NtCs1OjIl8oxbrv_5alloc7raw_vecINtB5_6RawVecNtNtCsjiK8NK7psZe_6object4read14ObjectMapEntryE8grow_oneCsg55jX0GwzBC_3std, symObjAddr: 0x1FF14, symBinAddr: 0x100038D50, symSize: 0x68 }
  - { offsetInCU: 0x57418, offset: 0x5AE70, size: 0x8, addend: 0x0, symName: __RNvMs3_NtCs1OjIl8oxbrv_5alloc7raw_vecINtB5_6RawVecNtNtNtCscUtGwbhD4WH_5gimli4read4line15FileEntryFormatE8grow_oneCsg55jX0GwzBC_3std, symObjAddr: 0x1FF7C, symBinAddr: 0x100038DB8, symSize: 0x68 }
  - { offsetInCU: 0x5749A, offset: 0x5AEF2, size: 0x8, addend: 0x0, symName: __RNvMs3_NtCs1OjIl8oxbrv_5alloc7raw_vecINtB5_6RawVecPaE8grow_oneCsg55jX0GwzBC_3std, symObjAddr: 0x1FFE4, symBinAddr: 0x100038E20, symSize: 0x0 }
  - { offsetInCU: 0x5751C, offset: 0x5AF74, size: 0x8, addend: 0x0, symName: __RNvMs3_NtCs1OjIl8oxbrv_5alloc7raw_vecINtB5_6RawVecTOhFUKCBN_EuENtNtCsg55jX0GwzBC_3std5alloc6SystemE8grow_oneB13_, symObjAddr: 0x2004C, symBinAddr: 0x100038E88, symSize: 0x28 }
  - { offsetInCU: 0x57953, offset: 0x5B3AB, size: 0x8, addend: 0x0, symName: __RINvNvMs2_NtCs1OjIl8oxbrv_5alloc7raw_vecINtB8_11RawVecInnerpE7reserve21do_reserve_and_handleNtNtBa_5alloc6GlobalECsg55jX0GwzBC_3std, symObjAddr: 0x12F44, symBinAddr: 0x10003854C, symSize: 0x8C }
  - { offsetInCU: 0x57BC2, offset: 0x5B61A, size: 0x8, addend: 0x0, symName: __RNvMsz_NtNtNtCs1OjIl8oxbrv_5alloc11collections5btree3mapINtB5_8IntoIteryINtNtCsl8K0bEFm1U0_4core6result6ResultINtNtBb_4sync3ArcNtNtNtCscUtGwbhD4WH_5gimli4read6abbrev13AbbreviationsENtB25_5ErrorEE10dying_nextCsg55jX0GwzBC_3std, symObjAddr: 0x2F818, symBinAddr: 0x10001E30C, symSize: 0x200 }
  - { offsetInCU: 0x57FC1, offset: 0x5BA19, size: 0x8, addend: 0x0, symName: __RNvMsz_NtNtNtCs1OjIl8oxbrv_5alloc11collections5btree3mapINtB5_8IntoIteryNtNtNtCscUtGwbhD4WH_5gimli4read6abbrev12AbbreviationE10dying_nextCsg55jX0GwzBC_3std, symObjAddr: 0x2FA18, symBinAddr: 0x10001E50C, symSize: 0x200 }
  - { offsetInCU: 0x58B2B, offset: 0x5C583, size: 0x8, addend: 0x0, symName: __RINvMs_NtNtNtCs1OjIl8oxbrv_5alloc11collections5btree6removeINtNtB7_4node6HandleINtBY_7NodeRefNtNtBY_6marker3MutjNtNtNtNtNtNtCsg55jX0GwzBC_3std3sys3pal4unix14stack_overflow11thread_info10ThreadInfoNtB1v_4LeafENtB1v_2KVE14remove_leaf_kvNCNvMs7_NtNtB7_3map5entryINtB3S_13OccupiedEntryjB1M_E9remove_kv0NtNtBb_5alloc6GlobalEB1Y_, symObjAddr: 0x456C, symBinAddr: 0x100005B0C, symSize: 0x4B0 }
  - { offsetInCU: 0x59A13, offset: 0x5D46B, size: 0x8, addend: 0x0, symName: __RINvMs10_NtNtNtCs1OjIl8oxbrv_5alloc11collections5btree4nodeINtB7_16BalancingContextjNtNtNtNtNtNtCsg55jX0GwzBC_3std3sys3pal4unix14stack_overflow11thread_info10ThreadInfoE25merge_tracking_child_edgeNtNtBd_5alloc6GlobalEB1w_, symObjAddr: 0x3758, symBinAddr: 0x100005788, symSize: 0x264 }
  - { offsetInCU: 0x5A112, offset: 0x5DB6A, size: 0x8, addend: 0x0, symName: __RNvMs10_NtNtNtCs1OjIl8oxbrv_5alloc11collections5btree4nodeINtB6_16BalancingContextjNtNtNtNtNtNtCsg55jX0GwzBC_3std3sys3pal4unix14stack_overflow11thread_info10ThreadInfoE15bulk_steal_leftB1v_, symObjAddr: 0x1BDD4, symBinAddr: 0x1000141A4, symSize: 0x22C }
  - { offsetInCU: 0x5A668, offset: 0x5E0C0, size: 0x8, addend: 0x0, symName: __RNvMs10_NtNtNtCs1OjIl8oxbrv_5alloc11collections5btree4nodeINtB6_16BalancingContextjNtNtNtNtNtNtCsg55jX0GwzBC_3std3sys3pal4unix14stack_overflow11thread_info10ThreadInfoE16bulk_steal_rightB1v_, symObjAddr: 0x1C000, symBinAddr: 0x1000143D0, symSize: 0x274 }
  - { offsetInCU: 0x5B4A4, offset: 0x5EEFC, size: 0x8, addend: 0x0, symName: __RNvNtCs1OjIl8oxbrv_5alloc5boxed14box_new_uninit, symObjAddr: 0x2FC18, symBinAddr: 0x10001E70C, symSize: 0x48 }
  - { offsetInCU: 0x5B690, offset: 0x5F0E8, size: 0x8, addend: 0x0, symName: __RNvXsZ_NtCs1OjIl8oxbrv_5alloc6stringNtB5_6StringNtNtCsl8K0bEFm1U0_4core3fmt5Write10write_char, symObjAddr: 0x46D40, symBinAddr: 0x100025B5C, symSize: 0x11C }
  - { offsetInCU: 0x5B82F, offset: 0x5F287, size: 0x8, addend: 0x0, symName: __RNvXsZ_NtCs1OjIl8oxbrv_5alloc6stringNtB5_6StringNtNtCsl8K0bEFm1U0_4core3fmt5Write9write_str, symObjAddr: 0x46E5C, symBinAddr: 0x100025C78, symSize: 0x84 }
  - { offsetInCU: 0x5B987, offset: 0x5F3DF, size: 0x8, addend: 0x0, symName: __RNvXsq_NtCs1OjIl8oxbrv_5alloc6stringNtB5_6StringNtNtCsl8K0bEFm1U0_4core3fmt7Display3fmt, symObjAddr: 0x4C120, symBinAddr: 0x100026A24, symSize: 0x10 }
  - { offsetInCU: 0x5BA41, offset: 0x5F499, size: 0x8, addend: 0x0, symName: __RNvXsr_NtCs1OjIl8oxbrv_5alloc6stringNtB5_6StringNtNtCsl8K0bEFm1U0_4core3fmt5Debug3fmt, symObjAddr: 0x4C188, symBinAddr: 0x100026A3C, symSize: 0x10 }
  - { offsetInCU: 0x5BB7E, offset: 0x5F5D6, size: 0x8, addend: 0x0, symName: __RNvXsX_NtNtCs1OjIl8oxbrv_5alloc3ffi5c_strNtB5_8NulErrorNtNtCsl8K0bEFm1U0_4core3fmt5Debug3fmt, symObjAddr: 0x46CDC, symBinAddr: 0x100025B10, symSize: 0x4C }
  - { offsetInCU: 0x5BCE4, offset: 0x5F73C, size: 0x8, addend: 0x0, symName: __RINvMs0_NtNtCsjiK8NK7psZe_6object4read7archiveNtB6_13ArchiveMember5parseRShECsg55jX0GwzBC_3std, symObjAddr: 0x2EFC, symBinAddr: 0x1000051DC, symSize: 0x5AC }
  - { offsetInCU: 0x5D45F, offset: 0x60EB7, size: 0x8, addend: 0x0, symName: _OUTLINED_FUNCTION_0, symObjAddr: 0x4E964, symBinAddr: 0x100028248, symSize: 0xC }
  - { offsetInCU: 0x5D477, offset: 0x60ECF, size: 0x8, addend: 0x0, symName: _OUTLINED_FUNCTION_1, symObjAddr: 0x4E970, symBinAddr: 0x100028254, symSize: 0x8 }
  - { offsetInCU: 0x5D48F, offset: 0x60EE7, size: 0x8, addend: 0x0, symName: _OUTLINED_FUNCTION_2, symObjAddr: 0x4E978, symBinAddr: 0x10002825C, symSize: 0xC }
  - { offsetInCU: 0x5D4A7, offset: 0x60EFF, size: 0x8, addend: 0x0, symName: _OUTLINED_FUNCTION_3, symObjAddr: 0x4E984, symBinAddr: 0x100028268, symSize: 0xC }
  - { offsetInCU: 0x5D4BF, offset: 0x60F17, size: 0x8, addend: 0x0, symName: _OUTLINED_FUNCTION_4, symObjAddr: 0x4E990, symBinAddr: 0x100028274, symSize: 0x10 }
  - { offsetInCU: 0x5D4D7, offset: 0x60F2F, size: 0x8, addend: 0x0, symName: _OUTLINED_FUNCTION_5, symObjAddr: 0x4E9A0, symBinAddr: 0x100028284, symSize: 0xC }
  - { offsetInCU: 0x5D4EF, offset: 0x60F47, size: 0x8, addend: 0x0, symName: _OUTLINED_FUNCTION_6, symObjAddr: 0x4E9AC, symBinAddr: 0x100028290, symSize: 0x10 }
  - { offsetInCU: 0x5D507, offset: 0x60F5F, size: 0x8, addend: 0x0, symName: _OUTLINED_FUNCTION_7, symObjAddr: 0x4E9BC, symBinAddr: 0x1000282A0, symSize: 0xC }
  - { offsetInCU: 0x5D51F, offset: 0x60F77, size: 0x8, addend: 0x0, symName: _OUTLINED_FUNCTION_8, symObjAddr: 0x4E9C8, symBinAddr: 0x1000282AC, symSize: 0xC }
  - { offsetInCU: 0x5D537, offset: 0x60F8F, size: 0x8, addend: 0x0, symName: _OUTLINED_FUNCTION_9, symObjAddr: 0x4E9D4, symBinAddr: 0x1000282B8, symSize: 0xC }
  - { offsetInCU: 0x5D54F, offset: 0x60FA7, size: 0x8, addend: 0x0, symName: _OUTLINED_FUNCTION_10, symObjAddr: 0x4E9E0, symBinAddr: 0x1000282C4, symSize: 0x8 }
  - { offsetInCU: 0x5D567, offset: 0x60FBF, size: 0x8, addend: 0x0, symName: _OUTLINED_FUNCTION_11, symObjAddr: 0x4E9E8, symBinAddr: 0x1000282CC, symSize: 0x8 }
  - { offsetInCU: 0x5D57F, offset: 0x60FD7, size: 0x8, addend: 0x0, symName: _OUTLINED_FUNCTION_12, symObjAddr: 0x4E9F0, symBinAddr: 0x1000282D4, symSize: 0x28 }
  - { offsetInCU: 0x5D597, offset: 0x60FEF, size: 0x8, addend: 0x0, symName: _OUTLINED_FUNCTION_13, symObjAddr: 0x4EA18, symBinAddr: 0x1000282FC, symSize: 0x14 }
  - { offsetInCU: 0x5D5AF, offset: 0x61007, size: 0x8, addend: 0x0, symName: _OUTLINED_FUNCTION_14, symObjAddr: 0x4EA2C, symBinAddr: 0x100028310, symSize: 0x8 }
  - { offsetInCU: 0x5D5C7, offset: 0x6101F, size: 0x8, addend: 0x0, symName: _OUTLINED_FUNCTION_15, symObjAddr: 0x4EA34, symBinAddr: 0x100028318, symSize: 0xC }
  - { offsetInCU: 0x5D5DF, offset: 0x61037, size: 0x8, addend: 0x0, symName: _OUTLINED_FUNCTION_16, symObjAddr: 0x4EA40, symBinAddr: 0x100028324, symSize: 0x10 }
  - { offsetInCU: 0x5D5F7, offset: 0x6104F, size: 0x8, addend: 0x0, symName: _OUTLINED_FUNCTION_17, symObjAddr: 0x4EA50, symBinAddr: 0x100028334, symSize: 0x8 }
  - { offsetInCU: 0x5D60F, offset: 0x61067, size: 0x8, addend: 0x0, symName: _OUTLINED_FUNCTION_18, symObjAddr: 0x4EA58, symBinAddr: 0x10002833C, symSize: 0x8 }
  - { offsetInCU: 0x5D627, offset: 0x6107F, size: 0x8, addend: 0x0, symName: _OUTLINED_FUNCTION_19, symObjAddr: 0x4EA60, symBinAddr: 0x100028344, symSize: 0x8 }
  - { offsetInCU: 0x5D63F, offset: 0x61097, size: 0x8, addend: 0x0, symName: _OUTLINED_FUNCTION_20, symObjAddr: 0x4EA68, symBinAddr: 0x10002834C, symSize: 0x10 }
  - { offsetInCU: 0x5D657, offset: 0x610AF, size: 0x8, addend: 0x0, symName: _OUTLINED_FUNCTION_21, symObjAddr: 0x4EA78, symBinAddr: 0x10002835C, symSize: 0x18 }
  - { offsetInCU: 0x5D66F, offset: 0x610C7, size: 0x8, addend: 0x0, symName: _OUTLINED_FUNCTION_22, symObjAddr: 0x4EA90, symBinAddr: 0x100028374, symSize: 0x18 }
  - { offsetInCU: 0x5D687, offset: 0x610DF, size: 0x8, addend: 0x0, symName: _OUTLINED_FUNCTION_23, symObjAddr: 0x4EAA8, symBinAddr: 0x10002838C, symSize: 0x8 }
  - { offsetInCU: 0x5D69F, offset: 0x610F7, size: 0x8, addend: 0x0, symName: _OUTLINED_FUNCTION_24, symObjAddr: 0x4EAB0, symBinAddr: 0x100028394, symSize: 0xC }
  - { offsetInCU: 0x5D6B7, offset: 0x6110F, size: 0x8, addend: 0x0, symName: _OUTLINED_FUNCTION_25, symObjAddr: 0x4EABC, symBinAddr: 0x1000283A0, symSize: 0x8 }
  - { offsetInCU: 0x5D6CF, offset: 0x61127, size: 0x8, addend: 0x0, symName: _OUTLINED_FUNCTION_26, symObjAddr: 0x4EAC4, symBinAddr: 0x1000283A8, symSize: 0x8 }
  - { offsetInCU: 0x5D6E7, offset: 0x6113F, size: 0x8, addend: 0x0, symName: _OUTLINED_FUNCTION_27, symObjAddr: 0x4EACC, symBinAddr: 0x1000283B0, symSize: 0xC }
  - { offsetInCU: 0x5D6FF, offset: 0x61157, size: 0x8, addend: 0x0, symName: _OUTLINED_FUNCTION_28, symObjAddr: 0x4EAD8, symBinAddr: 0x1000283BC, symSize: 0x8 }
  - { offsetInCU: 0x5D717, offset: 0x6116F, size: 0x8, addend: 0x0, symName: _OUTLINED_FUNCTION_29, symObjAddr: 0x4EAE0, symBinAddr: 0x1000283C4, symSize: 0xC }
  - { offsetInCU: 0x5D72F, offset: 0x61187, size: 0x8, addend: 0x0, symName: _OUTLINED_FUNCTION_30, symObjAddr: 0x4EAEC, symBinAddr: 0x1000283D0, symSize: 0x8 }
  - { offsetInCU: 0x5D747, offset: 0x6119F, size: 0x8, addend: 0x0, symName: _OUTLINED_FUNCTION_31, symObjAddr: 0x4EAF4, symBinAddr: 0x1000283D8, symSize: 0xC }
  - { offsetInCU: 0x5D75F, offset: 0x611B7, size: 0x8, addend: 0x0, symName: _OUTLINED_FUNCTION_32, symObjAddr: 0x4EB00, symBinAddr: 0x1000283E4, symSize: 0xC }
  - { offsetInCU: 0x5D777, offset: 0x611CF, size: 0x8, addend: 0x0, symName: _OUTLINED_FUNCTION_33, symObjAddr: 0x4EB0C, symBinAddr: 0x1000283F0, symSize: 0xC }
  - { offsetInCU: 0x5D78F, offset: 0x611E7, size: 0x8, addend: 0x0, symName: _OUTLINED_FUNCTION_34, symObjAddr: 0x4EB18, symBinAddr: 0x1000283FC, symSize: 0x10 }
  - { offsetInCU: 0x5D7A7, offset: 0x611FF, size: 0x8, addend: 0x0, symName: _OUTLINED_FUNCTION_35, symObjAddr: 0x4EB28, symBinAddr: 0x10002840C, symSize: 0xC }
  - { offsetInCU: 0x5D7BF, offset: 0x61217, size: 0x8, addend: 0x0, symName: _OUTLINED_FUNCTION_36, symObjAddr: 0x4EB34, symBinAddr: 0x100028418, symSize: 0x14 }
  - { offsetInCU: 0x5D7D7, offset: 0x6122F, size: 0x8, addend: 0x0, symName: _OUTLINED_FUNCTION_37, symObjAddr: 0x4EB48, symBinAddr: 0x10002842C, symSize: 0x14 }
  - { offsetInCU: 0x5D7EF, offset: 0x61247, size: 0x8, addend: 0x0, symName: _OUTLINED_FUNCTION_38, symObjAddr: 0x4EB5C, symBinAddr: 0x100028440, symSize: 0x14 }
  - { offsetInCU: 0x5D807, offset: 0x6125F, size: 0x8, addend: 0x0, symName: _OUTLINED_FUNCTION_39, symObjAddr: 0x4EB70, symBinAddr: 0x100028454, symSize: 0x14 }
  - { offsetInCU: 0x5D81F, offset: 0x61277, size: 0x8, addend: 0x0, symName: _OUTLINED_FUNCTION_40, symObjAddr: 0x4EB84, symBinAddr: 0x100028468, symSize: 0x14 }
  - { offsetInCU: 0x5D837, offset: 0x6128F, size: 0x8, addend: 0x0, symName: _OUTLINED_FUNCTION_41, symObjAddr: 0x4EB98, symBinAddr: 0x10002847C, symSize: 0x14 }
  - { offsetInCU: 0x5D84F, offset: 0x612A7, size: 0x8, addend: 0x0, symName: _OUTLINED_FUNCTION_42, symObjAddr: 0x4EBAC, symBinAddr: 0x100028490, symSize: 0xC }
  - { offsetInCU: 0x5D867, offset: 0x612BF, size: 0x8, addend: 0x0, symName: _OUTLINED_FUNCTION_43, symObjAddr: 0x4EBB8, symBinAddr: 0x10002849C, symSize: 0xC }
  - { offsetInCU: 0x5D87F, offset: 0x612D7, size: 0x8, addend: 0x0, symName: _OUTLINED_FUNCTION_44, symObjAddr: 0x4EBC4, symBinAddr: 0x1000284A8, symSize: 0xC }
  - { offsetInCU: 0x1E, offset: 0x6130D, size: 0x8, addend: 0x0, symName: __RINvNtCsl8K0bEFm1U0_4core3ptr13drop_in_placeINtNtCs1OjIl8oxbrv_5alloc5boxed3BoxNtNtCsioZnSFB6UoG_12panic_unwind3imp9ExceptionEEB1j_, symObjAddr: 0x0, symBinAddr: 0x1000284B4, symSize: 0x8C }
  - { offsetInCU: 0x67, offset: 0x61356, size: 0x8, addend: 0x0, symName: __RINvNtCsl8K0bEFm1U0_4core3ptr13drop_in_placeINtNtCs1OjIl8oxbrv_5alloc5boxed3BoxNtNtCsioZnSFB6UoG_12panic_unwind3imp9ExceptionEEB1j_, symObjAddr: 0x0, symBinAddr: 0x1000284B4, symSize: 0x8C }
  - { offsetInCU: 0x2E4, offset: 0x615D3, size: 0x8, addend: 0x0, symName: __RINvNtCsl8K0bEFm1U0_4core3ptr13drop_in_placeNtNtCsioZnSFB6UoG_12panic_unwind3imp9ExceptionEBK_, symObjAddr: 0x8C, symBinAddr: 0x100028540, symSize: 0x78 }
  - { offsetInCU: 0x5CF, offset: 0x618BE, size: 0x8, addend: 0x0, symName: __RNvNvNtCsioZnSFB6UoG_12panic_unwind3imp5panic17exception_cleanup, symObjAddr: 0x20C, symBinAddr: 0x1000286C0, symSize: 0x18 }
  - { offsetInCU: 0x5EB, offset: 0x618DA, size: 0x8, addend: 0x0, symName: __RNvCsfLfy6EI15iL_7___rustc18___rust_start_panic, symObjAddr: 0x104, symBinAddr: 0x1000285B8, symSize: 0xA0 }
  - { offsetInCU: 0x68A, offset: 0x61979, size: 0x8, addend: 0x0, symName: __RNvCsfLfy6EI15iL_7___rustc20___rust_panic_cleanup, symObjAddr: 0x1A4, symBinAddr: 0x100028658, symSize: 0x68 }
  - { offsetInCU: 0x10A, offset: 0x61B54, size: 0x8, addend: 0x0, symName: __RNvMs4_NtCs1OjIl8oxbrv_5alloc7raw_vecNtB5_11RawVecInner11finish_growB7_, symObjAddr: 0x329C, symBinAddr: 0x1000394D8, symSize: 0x8C }
  - { offsetInCU: 0x2B0, offset: 0x61CFA, size: 0x8, addend: 0x0, symName: __RINvNvMs2_NtCs1OjIl8oxbrv_5alloc7raw_vecINtB8_11RawVecInnerpE7reserve21do_reserve_and_handleNtNtBa_5alloc6GlobalEBa_, symObjAddr: 0x30, symBinAddr: 0x100039460, symSize: 0x78 }
  - { offsetInCU: 0x41E, offset: 0x61E68, size: 0x8, addend: 0x0, symName: __RNvNtCs1OjIl8oxbrv_5alloc7raw_vec12handle_error, symObjAddr: 0x412C, symBinAddr: 0x10003957C, symSize: 0x14 }
  - { offsetInCU: 0x464, offset: 0x61EAE, size: 0x8, addend: 0x0, symName: __RNvNtCs1OjIl8oxbrv_5alloc7raw_vec17capacity_overflow, symObjAddr: 0x4140, symBinAddr: 0x100039590, symSize: 0x20 }
  - { offsetInCU: 0x56D, offset: 0x61FB7, size: 0x8, addend: 0x0, symName: __RNvNtCs1OjIl8oxbrv_5alloc5alloc18handle_alloc_error, symObjAddr: 0x4114, symBinAddr: 0x100039564, symSize: 0x18 }
  - { offsetInCU: 0x5C3, offset: 0x6200D, size: 0x8, addend: 0x0, symName: __RNvMNtCs1OjIl8oxbrv_5alloc6stringNtB2_6String15from_utf8_lossy, symObjAddr: 0xD80, symBinAddr: 0x10003003C, symSize: 0x230 }
  - { offsetInCU: 0xBA8, offset: 0x625F2, size: 0x8, addend: 0x0, symName: __RNvXsP_NtCs1OjIl8oxbrv_5alloc6stringNtB5_6StringINtNtCsl8K0bEFm1U0_4core7convert4FromINtNtB7_6borrow3CoweEE4from, symObjAddr: 0x4C08, symBinAddr: 0x100030408, symSize: 0x98 }
  - { offsetInCU: 0xEC0, offset: 0x6290A, size: 0x8, addend: 0x0, symName: __RNvNtCs1OjIl8oxbrv_5alloc4sync32arcinner_layout_for_value_layout, symObjAddr: 0x40A0, symBinAddr: 0x100030384, symSize: 0x74 }
  - { offsetInCU: 0xFD8, offset: 0x62A22, size: 0x8, addend: 0x0, symName: __RNvXs0_NvXsf_NtNtCs1OjIl8oxbrv_5alloc5boxed7convertINtBd_3BoxDNtNtCsl8K0bEFm1U0_4core5error5ErrorNtNtB12_6marker4SyncNtB1z_4SendEL_EINtNtB12_7convert4FromNtNtBf_6string6StringE4fromNtB5_11StringErrorNtNtB12_3fmt5Debug3fmt, symObjAddr: 0x450C, symBinAddr: 0x1000303F8, symSize: 0x10 }
  - { offsetInCU: 0x10A8, offset: 0x62AF2, size: 0x8, addend: 0x0, symName: __RNvXs_NvXsf_NtNtCs1OjIl8oxbrv_5alloc5boxed7convertINtBc_3BoxDNtNtCsl8K0bEFm1U0_4core5error5ErrorNtNtB11_6marker4SyncNtB1y_4SendEL_EINtNtB11_7convert4FromNtNtBe_6string6StringE4fromNtB4_11StringErrorNtNtB11_3fmt7Display3fmt, symObjAddr: 0x4FF8, symBinAddr: 0x1000305BC, symSize: 0x10 }
  - { offsetInCU: 0x1186, offset: 0x62BD0, size: 0x8, addend: 0x0, symName: __RNvMs_NtNtCs1OjIl8oxbrv_5alloc3ffi5c_strNtB4_7CString19__from_vec_unchecked, symObjAddr: 0x3E44, symBinAddr: 0x10003026C, symSize: 0x118 }
  - { offsetInCU: 0x1507, offset: 0x62F51, size: 0x8, addend: 0x0, symName: __RNvXs_NvMs_NtNtCs1OjIl8oxbrv_5alloc3ffi5c_strNtB9_7CString3newRShNtB4_11SpecNewImpl13spec_new_impl, symObjAddr: 0x4EDC, symBinAddr: 0x1000304A0, symSize: 0x11C }
  - { offsetInCU: 0x19E8, offset: 0x63432, size: 0x8, addend: 0x0, symName: __RNvXsd_NtNtCsl8K0bEFm1U0_4core5alloc6layoutNtB5_11LayoutErrorNtNtB9_3fmt5Debug3fmt, symObjAddr: 0x5008, symBinAddr: 0x1000305CC, symSize: 0x14 }
  - { offsetInCU: 0x35, offset: 0x63485, size: 0x8, addend: 0x0, symName: __RINvNtCsl8K0bEFm1U0_4core9panicking13assert_failedjjEB4_, symObjAddr: 0x28, symBinAddr: 0x1000395B0, symSize: 0x28 }
  - { offsetInCU: 0x4F, offset: 0x6349F, size: 0x8, addend: 0x0, symName: __RINvNtCsl8K0bEFm1U0_4core9panicking13assert_failedyyEB4_, symObjAddr: 0x50, symBinAddr: 0x1000395D8, symSize: 0x28 }
  - { offsetInCU: 0x77, offset: 0x634C7, size: 0x8, addend: 0x0, symName: __RNvNtCsl8K0bEFm1U0_4core9panicking14panic_nounwind, symObjAddr: 0xB25C, symBinAddr: 0x100039700, symSize: 0x20 }
  - { offsetInCU: 0xA6, offset: 0x634F6, size: 0x8, addend: 0x0, symName: __RNvNtCsl8K0bEFm1U0_4core9panicking16panic_in_cleanup, symObjAddr: 0xB2B8, symBinAddr: 0x100039720, symSize: 0x18 }
  - { offsetInCU: 0xC1, offset: 0x63511, size: 0x8, addend: 0x0, symName: __RNvNtCsl8K0bEFm1U0_4core9panicking18panic_bounds_check, symObjAddr: 0xB2D0, symBinAddr: 0x100039738, symSize: 0x38 }
  - { offsetInCU: 0xF0, offset: 0x63540, size: 0x8, addend: 0x0, symName: __RNvNtCsl8K0bEFm1U0_4core9panicking18panic_nounwind_fmt, symObjAddr: 0xB308, symBinAddr: 0x100039770, symSize: 0x30 }
  - { offsetInCU: 0x135, offset: 0x63585, size: 0x8, addend: 0x0, symName: __RNvNtCsl8K0bEFm1U0_4core9panicking19assert_failed_inner, symObjAddr: 0xB338, symBinAddr: 0x1000397A0, symSize: 0xBC }
  - { offsetInCU: 0x150, offset: 0x635A0, size: 0x8, addend: 0x0, symName: __RNvNtCsl8K0bEFm1U0_4core9panicking19panic_cannot_unwind, symObjAddr: 0xB3F4, symBinAddr: 0x10003985C, symSize: 0x18 }
  - { offsetInCU: 0x16B, offset: 0x635BB, size: 0x8, addend: 0x0, symName: __RNvNtCsl8K0bEFm1U0_4core9panicking26panic_nounwind_nobacktrace, symObjAddr: 0xB40C, symBinAddr: 0x100039874, symSize: 0x20 }
  - { offsetInCU: 0x19A, offset: 0x635EA, size: 0x8, addend: 0x0, symName: __RNvNtCsl8K0bEFm1U0_4core9panicking5panic, symObjAddr: 0xB4B8, symBinAddr: 0x100039894, symSize: 0x14 }
  - { offsetInCU: 0x1C9, offset: 0x63619, size: 0x8, addend: 0x0, symName: __RNvNtCsl8K0bEFm1U0_4core9panicking9panic_fmt, symObjAddr: 0xB4CC, symBinAddr: 0x1000398A8, symSize: 0x28 }
  - { offsetInCU: 0x1FD, offset: 0x6364D, size: 0x8, addend: 0x0, symName: __RNvNtNtCsl8K0bEFm1U0_4core9panicking11panic_const23panic_const_div_by_zero, symObjAddr: 0xD6AC, symBinAddr: 0x100039984, symSize: 0x1C }
  - { offsetInCU: 0x217, offset: 0x63667, size: 0x8, addend: 0x0, symName: __RNvNtNtCsl8K0bEFm1U0_4core9panicking11panic_const23panic_const_rem_by_zero, symObjAddr: 0xD6E4, symBinAddr: 0x1000399A0, symSize: 0x1C }
  - { offsetInCU: 0x3A7, offset: 0x637F7, size: 0x8, addend: 0x0, symName: __RNvXs_NtNtCsl8K0bEFm1U0_4core3ops5rangeINtB4_5RangejENtNtB8_3fmt5Debug3fmtB8_, symObjAddr: 0x1AFEC, symBinAddr: 0x100034C74, symSize: 0x5C }
  - { offsetInCU: 0x425, offset: 0x63875, size: 0x8, addend: 0x0, symName: __RNvMsa_NtCsl8K0bEFm1U0_4core3fmtNtB5_9Formatter10debug_list, symObjAddr: 0x75F0, symBinAddr: 0x100030F1C, symSize: 0x48 }
  - { offsetInCU: 0x464, offset: 0x638B4, size: 0x8, addend: 0x0, symName: __RNvMsa_NtCsl8K0bEFm1U0_4core3fmtNtB5_9Formatter11debug_tuple, symObjAddr: 0x7638, symBinAddr: 0x100030F64, symSize: 0x50 }
  - { offsetInCU: 0x4B0, offset: 0x63900, size: 0x8, addend: 0x0, symName: __RNvMsa_NtCsl8K0bEFm1U0_4core3fmtNtB5_9Formatter12debug_struct, symObjAddr: 0x7688, symBinAddr: 0x100030FB4, symSize: 0x3C }
  - { offsetInCU: 0x4FB, offset: 0x6394B, size: 0x8, addend: 0x0, symName: __RNvMsa_NtCsl8K0bEFm1U0_4core3fmtNtB5_9Formatter12pad_integral, symObjAddr: 0x76C4, symBinAddr: 0x100030FF0, symSize: 0x3B0 }
  - { offsetInCU: 0x832, offset: 0x63C82, size: 0x8, addend: 0x0, symName: __RNvMsa_NtCsl8K0bEFm1U0_4core3fmtNtB5_9Formatter25debug_tuple_field2_finish, symObjAddr: 0x8080, symBinAddr: 0x1000313A0, symSize: 0x1D8 }
  - { offsetInCU: 0xB29, offset: 0x63F79, size: 0x8, addend: 0x0, symName: __RNvMsa_NtCsl8K0bEFm1U0_4core3fmtNtB5_9Formatter26debug_struct_field1_finish, symObjAddr: 0x8E0C, symBinAddr: 0x100031578, symSize: 0xD0 }
  - { offsetInCU: 0xBF7, offset: 0x64047, size: 0x8, addend: 0x0, symName: __RNvMsa_NtCsl8K0bEFm1U0_4core3fmtNtB5_9Formatter26debug_struct_field2_finish, symObjAddr: 0x8EDC, symBinAddr: 0x100031648, symSize: 0x104 }
  - { offsetInCU: 0xCCC, offset: 0x6411C, size: 0x8, addend: 0x0, symName: __RNvMsa_NtCsl8K0bEFm1U0_4core3fmtNtB5_9Formatter3pad, symObjAddr: 0x94F0, symBinAddr: 0x10003174C, symSize: 0x310 }
  - { offsetInCU: 0xFCD, offset: 0x6441D, size: 0x8, addend: 0x0, symName: __RNvMsa_NtCsl8K0bEFm1U0_4core3fmtNtB5_9Formatter9write_str, symObjAddr: 0x98AC, symBinAddr: 0x100031A5C, symSize: 0x0 }
  - { offsetInCU: 0x1116, offset: 0x64566, size: 0x8, addend: 0x0, symName: __RNvXNtNtNtCsl8K0bEFm1U0_4core3fmt3num3imphNtB6_7Display3fmt, symObjAddr: 0x122FC, symBinAddr: 0x100033CBC, symSize: 0xB0 }
  - { offsetInCU: 0x1205, offset: 0x64655, size: 0x8, addend: 0x0, symName: __RNvXs8_NtNtNtCsl8K0bEFm1U0_4core3fmt3num3impmNtB9_7Display3fmt, symObjAddr: 0x19314, symBinAddr: 0x100034678, symSize: 0x130 }
  - { offsetInCU: 0x1334, offset: 0x64784, size: 0x8, addend: 0x0, symName: __RNvXs9_NtNtNtCsl8K0bEFm1U0_4core3fmt3num3implNtB9_7Display3fmt, symObjAddr: 0x19748, symBinAddr: 0x1000347A8, symSize: 0x138 }
  - { offsetInCU: 0x1447, offset: 0x64897, size: 0x8, addend: 0x0, symName: __RNvXsd_NtNtNtCsl8K0bEFm1U0_4core3fmt3num3impyNtB9_7Display3fmt, symObjAddr: 0x1C738, symBinAddr: 0x100034CE0, symSize: 0x0 }
  - { offsetInCU: 0x1553, offset: 0x649A3, size: 0x8, addend: 0x0, symName: __RNvXs6_NtNtCsl8K0bEFm1U0_4core3fmt3numjNtB7_8LowerHex3fmt, symObjAddr: 0x189C8, symBinAddr: 0x100034588, symSize: 0x0 }
  - { offsetInCU: 0x15D4, offset: 0x64A24, size: 0x8, addend: 0x0, symName: __RNvXsv_NtNtCsl8K0bEFm1U0_4core3fmt3numlNtB7_8LowerHex3fmt, symObjAddr: 0x1E15C, symBinAddr: 0x100035478, symSize: 0x74 }
  - { offsetInCU: 0x166A, offset: 0x64ABA, size: 0x8, addend: 0x0, symName: __RNvXsx_NtNtCsl8K0bEFm1U0_4core3fmt3numlNtB7_8UpperHex3fmt, symObjAddr: 0x1E288, symBinAddr: 0x1000354EC, symSize: 0x74 }
  - { offsetInCU: 0x16EE, offset: 0x64B3E, size: 0x8, addend: 0x0, symName: __RNvXs8_NtNtCsl8K0bEFm1U0_4core3fmt3numjNtB7_8UpperHex3fmt, symObjAddr: 0x19024, symBinAddr: 0x100034608, symSize: 0x0 }
  - { offsetInCU: 0x1781, offset: 0x64BD1, size: 0x8, addend: 0x0, symName: __RNvXse_NtNtCsl8K0bEFm1U0_4core3fmt3numhNtB7_8LowerHex3fmt, symObjAddr: 0x1C944, symBinAddr: 0x100034E1C, symSize: 0x74 }
  - { offsetInCU: 0x17F0, offset: 0x64C40, size: 0x8, addend: 0x0, symName: __RNvXsg_NtNtCsl8K0bEFm1U0_4core3fmt3numhNtB7_8UpperHex3fmt, symObjAddr: 0x1CCDC, symBinAddr: 0x100034EC4, symSize: 0x74 }
  - { offsetInCU: 0x1853, offset: 0x64CA3, size: 0x8, addend: 0x0, symName: __RNvXsX_NtNtCsl8K0bEFm1U0_4core3fmt3numyNtB7_5Debug3fmt, symObjAddr: 0x1A954, symBinAddr: 0x1000348E0, symSize: 0x1C4 }
  - { offsetInCU: 0x19BB, offset: 0x64E0B, size: 0x8, addend: 0x0, symName: __RNvXsZ_NtNtCsl8K0bEFm1U0_4core3fmt3numjNtB7_5Debug3fmt, symObjAddr: 0x1AC14, symBinAddr: 0x100034AA4, symSize: 0x1D0 }
  - { offsetInCU: 0x1BD1, offset: 0x65021, size: 0x8, addend: 0x0, symName: __RNvMs1_NtNtCsl8K0bEFm1U0_4core3fmt8buildersNtB5_11DebugStruct5field, symObjAddr: 0x4C90, symBinAddr: 0x10003086C, symSize: 0x1B4 }
  - { offsetInCU: 0x1DDB, offset: 0x6522B, size: 0x8, addend: 0x0, symName: __RNvMs1_NtNtCsl8K0bEFm1U0_4core3fmt8buildersNtB5_11DebugStruct6finish, symObjAddr: 0x4E44, symBinAddr: 0x100030A20, symSize: 0x7C }
  - { offsetInCU: 0x1ED4, offset: 0x65324, size: 0x8, addend: 0x0, symName: __RNvMs2_NtNtCsl8K0bEFm1U0_4core3fmt8buildersNtB5_10DebugTuple5field, symObjAddr: 0x5114, symBinAddr: 0x100030A9C, symSize: 0x148 }
  - { offsetInCU: 0x2051, offset: 0x654A1, size: 0x8, addend: 0x0, symName: __RNvMs2_NtNtCsl8K0bEFm1U0_4core3fmt8buildersNtB5_10DebugTuple6finish, symObjAddr: 0x525C, symBinAddr: 0x100030BE4, symSize: 0xB4 }
  - { offsetInCU: 0x2109, offset: 0x65559, size: 0x8, addend: 0x0, symName: __RNvMs4_NtNtCsl8K0bEFm1U0_4core3fmt8buildersNtB5_8DebugSet5entry, symObjAddr: 0x6100, symBinAddr: 0x100030D88, symSize: 0x0 }
  - { offsetInCU: 0x22E5, offset: 0x65735, size: 0x8, addend: 0x0, symName: __RNvMs5_NtNtCsl8K0bEFm1U0_4core3fmt8buildersNtB5_9DebugList6finish, symObjAddr: 0x635C, symBinAddr: 0x100030ED0, symSize: 0x4C }
  - { offsetInCU: 0x236B, offset: 0x657BB, size: 0x8, addend: 0x0, symName: __RNvXs0_NtNtCsl8K0bEFm1U0_4core3fmt8buildersNtB5_10PadAdapterNtB7_5Write10write_char, symObjAddr: 0x124C0, symBinAddr: 0x100033D6C, symSize: 0x80 }
  - { offsetInCU: 0x2393, offset: 0x657E3, size: 0x8, addend: 0x0, symName: __RNvXs0_NtNtCsl8K0bEFm1U0_4core3fmt8buildersNtB5_10PadAdapterNtB7_5Write9write_str, symObjAddr: 0x12540, symBinAddr: 0x100033DEC, symSize: 0x240 }
  - { offsetInCU: 0x2720, offset: 0x65B70, size: 0x8, addend: 0x0, symName: __RNvNvMsa_NtCsl8K0bEFm1U0_4core3fmtNtB7_9Formatter12pad_integral12write_prefix, symObjAddr: 0x1144C, symBinAddr: 0x100033C40, symSize: 0x7C }
  - { offsetInCU: 0x2764, offset: 0x65BB4, size: 0x8, addend: 0x0, symName: __RNvXs1g_NtCsl8K0bEFm1U0_4core3fmtRDNtB6_5DebugEL_Bx_3fmtB8_, symObjAddr: 0x15060, symBinAddr: 0x10003402C, symSize: 0x10 }
  - { offsetInCU: 0x2784, offset: 0x65BD4, size: 0x8, addend: 0x0, symName: __RNvXs1g_NtCsl8K0bEFm1U0_4core3fmtRjNtB6_5Debug3fmtB8_, symObjAddr: 0x152B4, symBinAddr: 0x10003403C, symSize: 0x8 }
  - { offsetInCU: 0x2797, offset: 0x65BE7, size: 0x8, addend: 0x0, symName: __RNvXs1g_NtCsl8K0bEFm1U0_4core3fmtRyNtB6_5Debug3fmtB8_, symObjAddr: 0x152BC, symBinAddr: 0x100034044, symSize: 0xC }
  - { offsetInCU: 0x27B2, offset: 0x65C02, size: 0x8, addend: 0x0, symName: __RNvNtCsl8K0bEFm1U0_4core3fmt17pointer_fmt_inner, symObjAddr: 0xA99C, symBinAddr: 0x1000322F4, symSize: 0xB0 }
  - { offsetInCU: 0x289E, offset: 0x65CEE, size: 0x8, addend: 0x0, symName: __RNvNtCsl8K0bEFm1U0_4core3fmt5write, symObjAddr: 0xAA4C, symBinAddr: 0x1000323A4, symSize: 0x1B4 }
  - { offsetInCU: 0x2B24, offset: 0x65F74, size: 0x8, addend: 0x0, symName: __RNvXsb_NtCsl8K0bEFm1U0_4core3fmtNtB5_9FormatterNtB5_5Write10write_char, symObjAddr: 0x1BC40, symBinAddr: 0x100034CD0, symSize: 0x10 }
  - { offsetInCU: 0x2B4A, offset: 0x65F9A, size: 0x8, addend: 0x0, symName: __RNvXsi_NtCsl8K0bEFm1U0_4core3fmteNtB5_7Display3fmt, symObjAddr: 0x1D14C, symBinAddr: 0x1000352C0, symSize: 0x14 }
  - { offsetInCU: 0x2B70, offset: 0x65FC0, size: 0x8, addend: 0x0, symName: __RNvXs1i_NtCsl8K0bEFm1U0_4core3fmtReNtB6_7Display3fmtB8_, symObjAddr: 0x152EC, symBinAddr: 0x100034050, symSize: 0x10 }
  - { offsetInCU: 0x2BB3, offset: 0x66003, size: 0x8, addend: 0x0, symName: __RNvXsj_NtCsl8K0bEFm1U0_4core3fmtcNtB5_5Debug3fmt, symObjAddr: 0x1D1D4, symBinAddr: 0x1000352D4, symSize: 0xA8 }
  - { offsetInCU: 0x2CC4, offset: 0x66114, size: 0x8, addend: 0x0, symName: __RNvYNtNtNtCsl8K0bEFm1U0_4core3fmt8builders10PadAdapterNtB6_5Write9write_fmtB8_, symObjAddr: 0x1E880, symBinAddr: 0x100035560, symSize: 0x14 }
  - { offsetInCU: 0x2D05, offset: 0x66155, size: 0x8, addend: 0x0, symName: __RNvXs8_NtCsl8K0bEFm1U0_4core3fmtNtB5_9ArgumentsNtB5_7Display3fmt, symObjAddr: 0x18F98, symBinAddr: 0x1000345F8, symSize: 0x10 }
  - { offsetInCU: 0x2D2B, offset: 0x6617B, size: 0x8, addend: 0x0, symName: __RNvXsg_NtCsl8K0bEFm1U0_4core3fmtbNtB5_7Display3fmt, symObjAddr: 0x1CCA8, symBinAddr: 0x100034E90, symSize: 0x34 }
  - { offsetInCU: 0x2D8F, offset: 0x661DF, size: 0x8, addend: 0x0, symName: __RNvXsh_NtCsl8K0bEFm1U0_4core3fmteNtB5_5Debug3fmt, symObjAddr: 0x1CD50, symBinAddr: 0x100034F38, symSize: 0x388 }
  - { offsetInCU: 0x323C, offset: 0x6668C, size: 0x8, addend: 0x0, symName: __RNvXsk_NtCsl8K0bEFm1U0_4core3fmtcNtB5_7Display3fmt, symObjAddr: 0x1D9A0, symBinAddr: 0x10003537C, symSize: 0xD4 }
  - { offsetInCU: 0x3435, offset: 0x66885, size: 0x8, addend: 0x0, symName: __RNvNtNtCsl8K0bEFm1U0_4core5slice5index16slice_index_fail, symObjAddr: 0xD098, symBinAddr: 0x1000398D0, symSize: 0xB4 }
  - { offsetInCU: 0x3759, offset: 0x66BA9, size: 0x8, addend: 0x0, symName: __RNvNtNtCsl8K0bEFm1U0_4core5slice6memchr14memchr_aligned, symObjAddr: 0xD14C, symBinAddr: 0x1000335AC, symSize: 0xDC }
  - { offsetInCU: 0x3770, offset: 0x66BC0, size: 0x8, addend: 0x0, symName: __RNvNtNtCsl8K0bEFm1U0_4core5slice6memchr14memchr_aligned, symObjAddr: 0xD14C, symBinAddr: 0x1000335AC, symSize: 0xDC }
  - { offsetInCU: 0x3785, offset: 0x66BD5, size: 0x8, addend: 0x0, symName: __RNvNtNtCsl8K0bEFm1U0_4core5slice6memchr14memchr_aligned, symObjAddr: 0xD14C, symBinAddr: 0x1000335AC, symSize: 0xDC }
  - { offsetInCU: 0x3799, offset: 0x66BE9, size: 0x8, addend: 0x0, symName: __RNvNtNtCsl8K0bEFm1U0_4core5slice6memchr14memchr_aligned, symObjAddr: 0xD14C, symBinAddr: 0x1000335AC, symSize: 0xDC }
  - { offsetInCU: 0x37AE, offset: 0x66BFE, size: 0x8, addend: 0x0, symName: __RNvNtNtCsl8K0bEFm1U0_4core5slice6memchr14memchr_aligned, symObjAddr: 0xD14C, symBinAddr: 0x1000335AC, symSize: 0xDC }
  - { offsetInCU: 0x385B, offset: 0x66CAB, size: 0x8, addend: 0x0, symName: __RNvNtNtCsl8K0bEFm1U0_4core5slice6memchr7memrchr, symObjAddr: 0xD228, symBinAddr: 0x100033688, symSize: 0x120 }
  - { offsetInCU: 0x3A86, offset: 0x66ED6, size: 0x8, addend: 0x0, symName: __RNvNtNtNtNtCsl8K0bEFm1U0_4core5slice4sort6shared9smallsort22panic_on_ord_violation, symObjAddr: 0x11214, symBinAddr: 0x1000399BC, symSize: 0x20 }
  - { offsetInCU: 0x3AAD, offset: 0x66EFD, size: 0x8, addend: 0x0, symName: __RNvNtNtNtNtCsl8K0bEFm1U0_4core5slice4sort6stable5drift11sqrt_approx, symObjAddr: 0x11234, symBinAddr: 0x100033C14, symSize: 0x2C }
  - { offsetInCU: 0x3B8F, offset: 0x66FDF, size: 0x8, addend: 0x0, symName: __RNvNtCsl8K0bEFm1U0_4core6option13expect_failed, symObjAddr: 0xB1C8, symBinAddr: 0x10003966C, symSize: 0x30 }
  - { offsetInCU: 0x3BC0, offset: 0x67010, size: 0x8, addend: 0x0, symName: __RNvNtCsl8K0bEFm1U0_4core6option13unwrap_failed, symObjAddr: 0xB1F8, symBinAddr: 0x10003969C, symSize: 0x1C }
  - { offsetInCU: 0x3C91, offset: 0x670E1, size: 0x8, addend: 0x0, symName: __RNvMNtNtCsl8K0bEFm1U0_4core4char7methodsc16escape_debug_ext, symObjAddr: 0x37B8, symBinAddr: 0x1000305E0, symSize: 0x28C }
  - { offsetInCU: 0x3FF9, offset: 0x67449, size: 0x8, addend: 0x0, symName: __RNvNtCsl8K0bEFm1U0_4core6result13unwrap_failed, symObjAddr: 0xB214, symBinAddr: 0x1000396B8, symSize: 0x48 }
  - { offsetInCU: 0x401F, offset: 0x6746F, size: 0x8, addend: 0x0, symName: __RNvNtNtCsl8K0bEFm1U0_4core3str8converts9from_utf8, symObjAddr: 0xCE04, symBinAddr: 0x100033338, symSize: 0x274 }
  - { offsetInCU: 0x403D, offset: 0x6748D, size: 0x8, addend: 0x0, symName: __RNvNtNtCsl8K0bEFm1U0_4core3str8converts9from_utf8, symObjAddr: 0xCE04, symBinAddr: 0x100033338, symSize: 0x274 }
  - { offsetInCU: 0x421D, offset: 0x6766D, size: 0x8, addend: 0x0, symName: __RNvNtNtCsl8K0bEFm1U0_4core3str5count14do_count_chars, symObjAddr: 0xC1D4, symBinAddr: 0x10003297C, symSize: 0x714 }
  - { offsetInCU: 0x4626, offset: 0x67A76, size: 0x8, addend: 0x0, symName: __RNvNtNtCsl8K0bEFm1U0_4core3str5count23char_count_general_case, symObjAddr: 0xC8E8, symBinAddr: 0x100033090, symSize: 0x2A8 }
  - { offsetInCU: 0x472A, offset: 0x67B7A, size: 0x8, addend: 0x0, symName: __RNvMsu_NtNtCsl8K0bEFm1U0_4core3str7patternNtB5_11StrSearcher3new, symObjAddr: 0xA114, symBinAddr: 0x100031A6C, symSize: 0x888 }
  - { offsetInCU: 0x49DF, offset: 0x67E2F, size: 0x8, addend: 0x0, symName: __RNvNtCsl8K0bEFm1U0_4core3str16slice_error_fail, symObjAddr: 0xAC34, symBinAddr: 0x100039600, symSize: 0xC }
  - { offsetInCU: 0x4A72, offset: 0x67EC2, size: 0x8, addend: 0x0, symName: __RNvNtCsl8K0bEFm1U0_4core3str19slice_error_fail_rt, symObjAddr: 0xAC5C, symBinAddr: 0x100032558, symSize: 0x424 }
  - { offsetInCU: 0x4CCA, offset: 0x6811A, size: 0x8, addend: 0x0, symName: __RNvXs2_NtNtCsl8K0bEFm1U0_4core3str5lossyNtB5_10Utf8ChunksNtNtNtNtB9_4iter6traits8iterator8Iterator4next, symObjAddr: 0x17420, symBinAddr: 0x100034060, symSize: 0x1C0 }
  - { offsetInCU: 0x528E, offset: 0x686DE, size: 0x8, addend: 0x0, symName: __RNvNtNtNtCsl8K0bEFm1U0_4core7unicode12unicode_data15grapheme_extend11lookup_slow, symObjAddr: 0xEB04, symBinAddr: 0x100033B0C, symSize: 0x108 }
  - { offsetInCU: 0x5458, offset: 0x688A8, size: 0x8, addend: 0x0, symName: __RNvNtNtCsl8K0bEFm1U0_4core7unicode9printable12is_printable, symObjAddr: 0xD348, symBinAddr: 0x1000337A8, symSize: 0x364 }
  - { offsetInCU: 0x5913, offset: 0x68D63, size: 0x8, addend: 0x0, symName: __RNvMs3_NtNtCsl8K0bEFm1U0_4core3ffi5c_strNtB5_4CStr19from_bytes_with_nul, symObjAddr: 0x5DF8, symBinAddr: 0x100030C98, symSize: 0xF0 }
  - { offsetInCU: 0x5931, offset: 0x68D81, size: 0x8, addend: 0x0, symName: __RNvMs3_NtNtCsl8K0bEFm1U0_4core3ffi5c_strNtB5_4CStr19from_bytes_with_nul, symObjAddr: 0x5DF8, symBinAddr: 0x100030C98, symSize: 0xF0 }
  - { offsetInCU: 0x5A40, offset: 0x68E90, size: 0x8, addend: 0x0, symName: __RNvNtCsl8K0bEFm1U0_4core4cell22panic_already_borrowed, symObjAddr: 0xB080, symBinAddr: 0x10003960C, symSize: 0x30 }
  - { offsetInCU: 0x5AAD, offset: 0x68EFD, size: 0x8, addend: 0x0, symName: __RNvNtCsl8K0bEFm1U0_4core4cell30panic_already_mutably_borrowed, symObjAddr: 0xB0B0, symBinAddr: 0x10003963C, symSize: 0x30 }
  - { offsetInCU: 0x5AF8, offset: 0x68F48, size: 0x8, addend: 0x0, symName: __RNvXsq_NtCsl8K0bEFm1U0_4core4cellNtB5_11BorrowErrorNtNtB7_3fmt7Display3fmt, symObjAddr: 0x1DE60, symBinAddr: 0x100035450, symSize: 0x14 }
  - { offsetInCU: 0x5B2E, offset: 0x68F7E, size: 0x8, addend: 0x0, symName: __RNvXsr_NtCsl8K0bEFm1U0_4core4cellNtB5_14BorrowMutErrorNtNtB7_3fmt7Display3fmt, symObjAddr: 0x1DF00, symBinAddr: 0x100035464, symSize: 0x14 }
  - { offsetInCU: 0x5BD8, offset: 0x69028, size: 0x8, addend: 0x0, symName: __RNvXs3_NtCsl8K0bEFm1U0_4core4bstrNtB5_7ByteStrNtNtB7_3fmt7Display3fmt, symObjAddr: 0x17BFC, symBinAddr: 0x100034220, symSize: 0x368 }
  - { offsetInCU: 0x5ED1, offset: 0x69321, size: 0x8, addend: 0x0, symName: _OUTLINED_FUNCTION_0, symObjAddr: 0x1E894, symBinAddr: 0x100035574, symSize: 0x10 }
...
